ARM GAS  /var/folders/t0/g2s8z9xd75s2k51g_zcxx3qc0000gn/T//cc3ykDyu.s 			page 1


   1              		.cpu cortex-m4
   2              		.arch armv7e-m
   3              		.fpu fpv4-sp-d16
   4              		.eabi_attribute 27, 1
   5              		.eabi_attribute 28, 1
   6              		.eabi_attribute 20, 1
   7              		.eabi_attribute 21, 1
   8              		.eabi_attribute 23, 3
   9              		.eabi_attribute 24, 1
  10              		.eabi_attribute 25, 1
  11              		.eabi_attribute 26, 1
  12              		.eabi_attribute 30, 1
  13              		.eabi_attribute 34, 1
  14              		.eabi_attribute 18, 4
  15              		.file	"gpio_handler.c"
  16              		.text
  17              	.Ltext0:
  18              		.cfi_sections	.debug_frame
  19              		.file 1 "Core/Src/gpio_handler/gpio_handler.c"
  20              		.section	.text.MX_GPIO_Init,"ax",%progbits
  21              		.align	1
  22              		.global	MX_GPIO_Init
  23              		.syntax unified
  24              		.thumb
  25              		.thumb_func
  27              	MX_GPIO_Init:
  28              	.LFB137:
   1:Core/Src/gpio_handler/gpio_handler.c **** #include "gpio_handler.h"
   2:Core/Src/gpio_handler/gpio_handler.c **** #include "timer.h" // For timer_handler used in ToggleLED
   3:Core/Src/gpio_handler/gpio_handler.c **** 
   4:Core/Src/gpio_handler/gpio_handler.c **** // Global Variables Definitions -----------------------------------
   5:Core/Src/gpio_handler/gpio_handler.c **** DigitalOut g_builtinLed;
   6:Core/Src/gpio_handler/gpio_handler.c **** DigitalIn g_builtinPushButton;
   7:Core/Src/gpio_handler/gpio_handler.c **** u32 g_ledToggleTimer = 0;
   8:Core/Src/gpio_handler/gpio_handler.c **** volatile bool g_is_logging_active = false; // Definition for the global flag
   9:Core/Src/gpio_handler/gpio_handler.c **** 
  10:Core/Src/gpio_handler/gpio_handler.c **** /**
  11:Core/Src/gpio_handler/gpio_handler.c ****   * @brief GPIO Initialisation Function
  12:Core/Src/gpio_handler/gpio_handler.c ****   */
  13:Core/Src/gpio_handler/gpio_handler.c **** void MX_GPIO_Init(void)
  14:Core/Src/gpio_handler/gpio_handler.c **** {
  29              		.loc 1 14 1 view -0
  30              		.cfi_startproc
  31              		@ args = 0, pretend = 0, frame = 40
  32              		@ frame_needed = 0, uses_anonymous_args = 0
  33 0000 30B5     		push	{r4, r5, lr}
  34              	.LCFI0:
  35              		.cfi_def_cfa_offset 12
  36              		.cfi_offset 4, -12
  37              		.cfi_offset 5, -8
  38              		.cfi_offset 14, -4
  39 0002 8BB0     		sub	sp, sp, #44
  40              	.LCFI1:
  41              		.cfi_def_cfa_offset 56
  15:Core/Src/gpio_handler/gpio_handler.c ****     GPIO_InitTypeDef GPIO_InitStruct = {0};
  42              		.loc 1 15 5 view .LVU1
  43              		.loc 1 15 22 is_stmt 0 view .LVU2
ARM GAS  /var/folders/t0/g2s8z9xd75s2k51g_zcxx3qc0000gn/T//cc3ykDyu.s 			page 2


  44 0004 05A9     		add	r1, sp, #20
  45 0006 0024     		movs	r4, #0
  46 0008 0594     		str	r4, [sp, #20]
  47 000a 4C60     		str	r4, [r1, #4]
  48 000c 8C60     		str	r4, [r1, #8]
  49 000e CC60     		str	r4, [r1, #12]
  50 0010 0C61     		str	r4, [r1, #16]
  16:Core/Src/gpio_handler/gpio_handler.c **** 
  17:Core/Src/gpio_handler/gpio_handler.c ****     /* GPIO Ports Clock Enable */
  18:Core/Src/gpio_handler/gpio_handler.c ****     __HAL_RCC_GPIOA_CLK_ENABLE();
  51              		.loc 1 18 5 is_stmt 1 view .LVU3
  52              	.LBB2:
  53              		.loc 1 18 5 view .LVU4
  54 0012 0194     		str	r4, [sp, #4]
  55              		.loc 1 18 5 view .LVU5
  56 0014 1E4B     		ldr	r3, .L3
  57 0016 1A6B     		ldr	r2, [r3, #48]
  58 0018 42F00102 		orr	r2, r2, #1
  59 001c 1A63     		str	r2, [r3, #48]
  60              		.loc 1 18 5 view .LVU6
  61 001e 1A6B     		ldr	r2, [r3, #48]
  62 0020 02F00102 		and	r2, r2, #1
  63 0024 0192     		str	r2, [sp, #4]
  64              		.loc 1 18 5 view .LVU7
  65 0026 019A     		ldr	r2, [sp, #4]
  66              	.LBE2:
  67              		.loc 1 18 5 view .LVU8
  19:Core/Src/gpio_handler/gpio_handler.c ****     __HAL_RCC_GPIOB_CLK_ENABLE();
  68              		.loc 1 19 5 view .LVU9
  69              	.LBB3:
  70              		.loc 1 19 5 view .LVU10
  71 0028 0294     		str	r4, [sp, #8]
  72              		.loc 1 19 5 view .LVU11
  73 002a 1A6B     		ldr	r2, [r3, #48]
  74 002c 42F00202 		orr	r2, r2, #2
  75 0030 1A63     		str	r2, [r3, #48]
  76              		.loc 1 19 5 view .LVU12
  77 0032 1A6B     		ldr	r2, [r3, #48]
  78 0034 02F00202 		and	r2, r2, #2
  79 0038 0292     		str	r2, [sp, #8]
  80              		.loc 1 19 5 view .LVU13
  81 003a 029A     		ldr	r2, [sp, #8]
  82              	.LBE3:
  83              		.loc 1 19 5 view .LVU14
  20:Core/Src/gpio_handler/gpio_handler.c ****     __HAL_RCC_GPIOC_CLK_ENABLE();
  84              		.loc 1 20 5 view .LVU15
  85              	.LBB4:
  86              		.loc 1 20 5 view .LVU16
  87 003c 0394     		str	r4, [sp, #12]
  88              		.loc 1 20 5 view .LVU17
  89 003e 1A6B     		ldr	r2, [r3, #48]
  90 0040 42F00402 		orr	r2, r2, #4
  91 0044 1A63     		str	r2, [r3, #48]
  92              		.loc 1 20 5 view .LVU18
  93 0046 1A6B     		ldr	r2, [r3, #48]
  94 0048 02F00402 		and	r2, r2, #4
  95 004c 0392     		str	r2, [sp, #12]
ARM GAS  /var/folders/t0/g2s8z9xd75s2k51g_zcxx3qc0000gn/T//cc3ykDyu.s 			page 3


  96              		.loc 1 20 5 view .LVU19
  97 004e 039A     		ldr	r2, [sp, #12]
  98              	.LBE4:
  99              		.loc 1 20 5 view .LVU20
  21:Core/Src/gpio_handler/gpio_handler.c ****     __HAL_RCC_GPIOH_CLK_ENABLE();
 100              		.loc 1 21 5 view .LVU21
 101              	.LBB5:
 102              		.loc 1 21 5 view .LVU22
 103 0050 0494     		str	r4, [sp, #16]
 104              		.loc 1 21 5 view .LVU23
 105 0052 1A6B     		ldr	r2, [r3, #48]
 106 0054 42F08002 		orr	r2, r2, #128
 107 0058 1A63     		str	r2, [r3, #48]
 108              		.loc 1 21 5 view .LVU24
 109 005a 1B6B     		ldr	r3, [r3, #48]
 110 005c 03F08003 		and	r3, r3, #128
 111 0060 0493     		str	r3, [sp, #16]
 112              		.loc 1 21 5 view .LVU25
 113 0062 049B     		ldr	r3, [sp, #16]
 114              	.LBE5:
 115              		.loc 1 21 5 view .LVU26
  22:Core/Src/gpio_handler/gpio_handler.c **** 
  23:Core/Src/gpio_handler/gpio_handler.c ****     /* --- Configure PC13 (USER Button) as an interrupt on the rising edge --- */
  24:Core/Src/gpio_handler/gpio_handler.c ****     GPIO_InitStruct.Pin = GPIO_PIN_13;
 116              		.loc 1 24 5 view .LVU27
 117              		.loc 1 24 25 is_stmt 0 view .LVU28
 118 0064 4FF40053 		mov	r3, #8192
 119 0068 0593     		str	r3, [sp, #20]
  25:Core/Src/gpio_handler/gpio_handler.c ****     GPIO_InitStruct.Mode = GPIO_MODE_IT_RISING; // Trigger on rising edge (when button is pressed)
 120              		.loc 1 25 5 is_stmt 1 view .LVU29
 121              		.loc 1 25 26 is_stmt 0 view .LVU30
 122 006a 4FF48813 		mov	r3, #1114112
 123 006e 0693     		str	r3, [sp, #24]
  26:Core/Src/gpio_handler/gpio_handler.c ****     
  27:Core/Src/gpio_handler/gpio_handler.c ****     // **** THIS IS THE FIX ****
  28:Core/Src/gpio_handler/gpio_handler.c ****     // Enable the internal pull-down resistor. This ensures the pin is held LOW when
  29:Core/Src/gpio_handler/gpio_handler.c ****     // the button is not pressed, preventing it from floating and triggering false interrupts.
  30:Core/Src/gpio_handler/gpio_handler.c ****     GPIO_InitStruct.Pull = GPIO_PULLDOWN;
 124              		.loc 1 30 5 is_stmt 1 view .LVU31
 125              		.loc 1 30 26 is_stmt 0 view .LVU32
 126 0070 0225     		movs	r5, #2
 127 0072 0795     		str	r5, [sp, #28]
  31:Core/Src/gpio_handler/gpio_handler.c ****     HAL_GPIO_Init(GPIOC, &GPIO_InitStruct);
 128              		.loc 1 31 5 is_stmt 1 view .LVU33
 129 0074 0748     		ldr	r0, .L3+4
 130 0076 FFF7FEFF 		bl	HAL_GPIO_Init
 131              	.LVL0:
  32:Core/Src/gpio_handler/gpio_handler.c **** 
  33:Core/Src/gpio_handler/gpio_handler.c ****     /* EXTI interrupt init for Line 13 (which is part of 15_10) */
  34:Core/Src/gpio_handler/gpio_handler.c ****     HAL_NVIC_SetPriority(EXTI15_10_IRQn, 2, 0); // Using a lower priority (e.g., 2) is good practic
 132              		.loc 1 34 5 view .LVU34
 133 007a 2246     		mov	r2, r4
 134 007c 2946     		mov	r1, r5
 135 007e 2820     		movs	r0, #40
 136 0080 FFF7FEFF 		bl	HAL_NVIC_SetPriority
 137              	.LVL1:
  35:Core/Src/gpio_handler/gpio_handler.c ****     HAL_NVIC_EnableIRQ(EXTI15_10_IRQn);
ARM GAS  /var/folders/t0/g2s8z9xd75s2k51g_zcxx3qc0000gn/T//cc3ykDyu.s 			page 4


 138              		.loc 1 35 5 view .LVU35
 139 0084 2820     		movs	r0, #40
 140 0086 FFF7FEFF 		bl	HAL_NVIC_EnableIRQ
 141              	.LVL2:
  36:Core/Src/gpio_handler/gpio_handler.c **** }
 142              		.loc 1 36 1 is_stmt 0 view .LVU36
 143 008a 0BB0     		add	sp, sp, #44
 144              	.LCFI2:
 145              		.cfi_def_cfa_offset 12
 146              		@ sp needed
 147 008c 30BD     		pop	{r4, r5, pc}
 148              	.L4:
 149 008e 00BF     		.align	2
 150              	.L3:
 151 0090 00380240 		.word	1073887232
 152 0094 00080240 		.word	1073874944
 153              		.cfi_endproc
 154              	.LFE137:
 156              		.section	.text.WriteDigitalOut,"ax",%progbits
 157              		.align	1
 158              		.global	WriteDigitalOut
 159              		.syntax unified
 160              		.thumb
 161              		.thumb_func
 163              	WriteDigitalOut:
 164              	.LVL3:
 165              	.LFB139:
  37:Core/Src/gpio_handler/gpio_handler.c **** 
  38:Core/Src/gpio_handler/gpio_handler.c **** // --- Digital Output Functions ---
  39:Core/Src/gpio_handler/gpio_handler.c **** 
  40:Core/Src/gpio_handler/gpio_handler.c **** DigitalOut AssignDigitalOut (Pin_t pin) {
  41:Core/Src/gpio_handler/gpio_handler.c ****     DigitalOut digital_out;
  42:Core/Src/gpio_handler/gpio_handler.c ****     digital_out.pin = pin;
  43:Core/Src/gpio_handler/gpio_handler.c ****     digital_out.state = GPIO_PIN_RESET;
  44:Core/Src/gpio_handler/gpio_handler.c **** 
  45:Core/Src/gpio_handler/gpio_handler.c ****     GPIO_InitTypeDef GPIO_InitStruct = {0};
  46:Core/Src/gpio_handler/gpio_handler.c ****     GPIO_InitStruct.Pin = digital_out.pin.pin;
  47:Core/Src/gpio_handler/gpio_handler.c ****     GPIO_InitStruct.Mode = GPIO_MODE_OUTPUT_PP;
  48:Core/Src/gpio_handler/gpio_handler.c ****     GPIO_InitStruct.Pull = GPIO_NOPULL;
  49:Core/Src/gpio_handler/gpio_handler.c ****     GPIO_InitStruct.Speed = GPIO_SPEED_FREQ_MEDIUM;
  50:Core/Src/gpio_handler/gpio_handler.c ****     HAL_GPIO_Init(digital_out.pin.port, &GPIO_InitStruct);
  51:Core/Src/gpio_handler/gpio_handler.c **** 
  52:Core/Src/gpio_handler/gpio_handler.c ****     WriteDigitalOut(&digital_out, 0); // Set initial state OFF
  53:Core/Src/gpio_handler/gpio_handler.c ****     return digital_out;
  54:Core/Src/gpio_handler/gpio_handler.c **** }
  55:Core/Src/gpio_handler/gpio_handler.c **** 
  56:Core/Src/gpio_handler/gpio_handler.c **** void WriteDigitalOut(DigitalOut *digital_out, u8 state) {
 166              		.loc 1 56 57 is_stmt 1 view -0
 167              		.cfi_startproc
 168              		@ args = 0, pretend = 0, frame = 0
 169              		@ frame_needed = 0, uses_anonymous_args = 0
  57:Core/Src/gpio_handler/gpio_handler.c ****     if (digital_out && digital_out->pin.port) {
 170              		.loc 1 57 5 view .LVU38
 171              		.loc 1 57 8 is_stmt 0 view .LVU39
 172 0000 48B1     		cbz	r0, .L8
  56:Core/Src/gpio_handler/gpio_handler.c ****     if (digital_out && digital_out->pin.port) {
 173              		.loc 1 56 57 view .LVU40
ARM GAS  /var/folders/t0/g2s8z9xd75s2k51g_zcxx3qc0000gn/T//cc3ykDyu.s 			page 5


 174 0002 08B5     		push	{r3, lr}
 175              	.LCFI3:
 176              		.cfi_def_cfa_offset 8
 177              		.cfi_offset 3, -8
 178              		.cfi_offset 14, -4
 179 0004 0346     		mov	r3, r0
 180              		.loc 1 57 40 discriminator 1 view .LVU41
 181 0006 0068     		ldr	r0, [r0]
 182              	.LVL4:
 183              		.loc 1 57 21 discriminator 1 view .LVU42
 184 0008 20B1     		cbz	r0, .L5
  58:Core/Src/gpio_handler/gpio_handler.c ****         digital_out->state = state;
 185              		.loc 1 58 9 is_stmt 1 view .LVU43
 186              		.loc 1 58 28 is_stmt 0 view .LVU44
 187 000a 1972     		strb	r1, [r3, #8]
  59:Core/Src/gpio_handler/gpio_handler.c ****         HAL_GPIO_WritePin(digital_out->pin.port, digital_out->pin.pin, (GPIO_PinState)state);
 188              		.loc 1 59 9 is_stmt 1 view .LVU45
 189 000c 0A46     		mov	r2, r1
 190 000e 9988     		ldrh	r1, [r3, #4]
 191              	.LVL5:
 192              		.loc 1 59 9 is_stmt 0 view .LVU46
 193 0010 FFF7FEFF 		bl	HAL_GPIO_WritePin
 194              	.LVL6:
 195              	.L5:
  60:Core/Src/gpio_handler/gpio_handler.c ****     }
  61:Core/Src/gpio_handler/gpio_handler.c **** }
 196              		.loc 1 61 1 view .LVU47
 197 0014 08BD     		pop	{r3, pc}
 198              	.LVL7:
 199              	.L8:
 200              	.LCFI4:
 201              		.cfi_def_cfa_offset 0
 202              		.cfi_restore 3
 203              		.cfi_restore 14
 204              		.loc 1 61 1 view .LVU48
 205 0016 7047     		bx	lr
 206              		.cfi_endproc
 207              	.LFE139:
 209              		.section	.text.AssignDigitalOut,"ax",%progbits
 210              		.align	1
 211              		.global	AssignDigitalOut
 212              		.syntax unified
 213              		.thumb
 214              		.thumb_func
 216              	AssignDigitalOut:
 217              	.LVL8:
 218              	.LFB138:
  40:Core/Src/gpio_handler/gpio_handler.c ****     DigitalOut digital_out;
 219              		.loc 1 40 41 is_stmt 1 view -0
 220              		.cfi_startproc
 221              		@ args = 0, pretend = 0, frame = 40
 222              		@ frame_needed = 0, uses_anonymous_args = 0
  40:Core/Src/gpio_handler/gpio_handler.c ****     DigitalOut digital_out;
 223              		.loc 1 40 41 is_stmt 0 view .LVU50
 224 0000 70B5     		push	{r4, r5, r6, lr}
 225              	.LCFI5:
 226              		.cfi_def_cfa_offset 16
ARM GAS  /var/folders/t0/g2s8z9xd75s2k51g_zcxx3qc0000gn/T//cc3ykDyu.s 			page 6


 227              		.cfi_offset 4, -16
 228              		.cfi_offset 5, -12
 229              		.cfi_offset 6, -8
 230              		.cfi_offset 14, -4
 231 0002 8AB0     		sub	sp, sp, #40
 232              	.LCFI6:
 233              		.cfi_def_cfa_offset 56
 234 0004 0546     		mov	r5, r0
 235 0006 CDE90012 		strd	r1, r2, [sp]
  41:Core/Src/gpio_handler/gpio_handler.c ****     digital_out.pin = pin;
 236              		.loc 1 41 5 is_stmt 1 view .LVU51
  42:Core/Src/gpio_handler/gpio_handler.c ****     digital_out.state = GPIO_PIN_RESET;
 237              		.loc 1 42 5 view .LVU52
  42:Core/Src/gpio_handler/gpio_handler.c ****     digital_out.state = GPIO_PIN_RESET;
 238              		.loc 1 42 21 is_stmt 0 view .LVU53
 239 000a 07AE     		add	r6, sp, #28
 240 000c DDE90001 		ldrd	r0, r1, [sp]
 241              	.LVL9:
  42:Core/Src/gpio_handler/gpio_handler.c ****     digital_out.state = GPIO_PIN_RESET;
 242              		.loc 1 42 21 view .LVU54
 243 0010 86E80500 		stm	r6, {r0, r2}
  43:Core/Src/gpio_handler/gpio_handler.c **** 
 244              		.loc 1 43 5 is_stmt 1 view .LVU55
  43:Core/Src/gpio_handler/gpio_handler.c **** 
 245              		.loc 1 43 23 is_stmt 0 view .LVU56
 246 0014 0024     		movs	r4, #0
 247 0016 8DF82440 		strb	r4, [sp, #36]
  45:Core/Src/gpio_handler/gpio_handler.c ****     GPIO_InitStruct.Pin = digital_out.pin.pin;
 248              		.loc 1 45 5 is_stmt 1 view .LVU57
  45:Core/Src/gpio_handler/gpio_handler.c ****     GPIO_InitStruct.Pin = digital_out.pin.pin;
 249              		.loc 1 45 22 is_stmt 0 view .LVU58
 250 001a 02A9     		add	r1, sp, #8
 251 001c 0294     		str	r4, [sp, #8]
 252 001e 4C60     		str	r4, [r1, #4]
 253 0020 8C60     		str	r4, [r1, #8]
 254 0022 CC60     		str	r4, [r1, #12]
 255 0024 0C61     		str	r4, [r1, #16]
  46:Core/Src/gpio_handler/gpio_handler.c ****     GPIO_InitStruct.Mode = GPIO_MODE_OUTPUT_PP;
 256              		.loc 1 46 5 is_stmt 1 view .LVU59
  46:Core/Src/gpio_handler/gpio_handler.c ****     GPIO_InitStruct.Mode = GPIO_MODE_OUTPUT_PP;
 257              		.loc 1 46 42 is_stmt 0 view .LVU60
 258 0026 BDF82030 		ldrh	r3, [sp, #32]
  46:Core/Src/gpio_handler/gpio_handler.c ****     GPIO_InitStruct.Mode = GPIO_MODE_OUTPUT_PP;
 259              		.loc 1 46 25 view .LVU61
 260 002a 0293     		str	r3, [sp, #8]
  47:Core/Src/gpio_handler/gpio_handler.c ****     GPIO_InitStruct.Pull = GPIO_NOPULL;
 261              		.loc 1 47 5 is_stmt 1 view .LVU62
  47:Core/Src/gpio_handler/gpio_handler.c ****     GPIO_InitStruct.Pull = GPIO_NOPULL;
 262              		.loc 1 47 26 is_stmt 0 view .LVU63
 263 002c 0123     		movs	r3, #1
 264 002e 0393     		str	r3, [sp, #12]
  48:Core/Src/gpio_handler/gpio_handler.c ****     GPIO_InitStruct.Speed = GPIO_SPEED_FREQ_MEDIUM;
 265              		.loc 1 48 5 is_stmt 1 view .LVU64
  49:Core/Src/gpio_handler/gpio_handler.c ****     HAL_GPIO_Init(digital_out.pin.port, &GPIO_InitStruct);
 266              		.loc 1 49 5 view .LVU65
  49:Core/Src/gpio_handler/gpio_handler.c ****     HAL_GPIO_Init(digital_out.pin.port, &GPIO_InitStruct);
 267              		.loc 1 49 27 is_stmt 0 view .LVU66
ARM GAS  /var/folders/t0/g2s8z9xd75s2k51g_zcxx3qc0000gn/T//cc3ykDyu.s 			page 7


 268 0030 0593     		str	r3, [sp, #20]
  50:Core/Src/gpio_handler/gpio_handler.c **** 
 269              		.loc 1 50 5 is_stmt 1 view .LVU67
 270 0032 FFF7FEFF 		bl	HAL_GPIO_Init
 271              	.LVL10:
  52:Core/Src/gpio_handler/gpio_handler.c ****     return digital_out;
 272              		.loc 1 52 5 view .LVU68
 273 0036 2146     		mov	r1, r4
 274 0038 3046     		mov	r0, r6
 275 003a FFF7FEFF 		bl	WriteDigitalOut
 276              	.LVL11:
  53:Core/Src/gpio_handler/gpio_handler.c **** }
 277              		.loc 1 53 5 view .LVU69
  53:Core/Src/gpio_handler/gpio_handler.c **** }
 278              		.loc 1 53 12 is_stmt 0 view .LVU70
 279 003e 96E80700 		ldm	r6, {r0, r1, r2}
 280 0042 85E80700 		stm	r5, {r0, r1, r2}
  54:Core/Src/gpio_handler/gpio_handler.c **** 
 281              		.loc 1 54 1 view .LVU71
 282 0046 2846     		mov	r0, r5
 283 0048 0AB0     		add	sp, sp, #40
 284              	.LCFI7:
 285              		.cfi_def_cfa_offset 16
 286              		@ sp needed
 287 004a 70BD     		pop	{r4, r5, r6, pc}
  54:Core/Src/gpio_handler/gpio_handler.c **** 
 288              		.loc 1 54 1 view .LVU72
 289              		.cfi_endproc
 290              	.LFE138:
 292              		.section	.text.ToggleDigitalOut,"ax",%progbits
 293              		.align	1
 294              		.global	ToggleDigitalOut
 295              		.syntax unified
 296              		.thumb
 297              		.thumb_func
 299              	ToggleDigitalOut:
 300              	.LVL12:
 301              	.LFB140:
  62:Core/Src/gpio_handler/gpio_handler.c **** 
  63:Core/Src/gpio_handler/gpio_handler.c **** void ToggleDigitalOut(DigitalOut *digital_out) {
 302              		.loc 1 63 48 is_stmt 1 view -0
 303              		.cfi_startproc
 304              		@ args = 0, pretend = 0, frame = 0
 305              		@ frame_needed = 0, uses_anonymous_args = 0
  64:Core/Src/gpio_handler/gpio_handler.c ****     if (digital_out && digital_out->pin.port) {
 306              		.loc 1 64 5 view .LVU74
 307              		.loc 1 64 8 is_stmt 0 view .LVU75
 308 0000 60B1     		cbz	r0, .L16
  63:Core/Src/gpio_handler/gpio_handler.c ****     if (digital_out && digital_out->pin.port) {
 309              		.loc 1 63 48 view .LVU76
 310 0002 08B5     		push	{r3, lr}
 311              	.LCFI8:
 312              		.cfi_def_cfa_offset 8
 313              		.cfi_offset 3, -8
 314              		.cfi_offset 14, -4
 315 0004 0346     		mov	r3, r0
 316              		.loc 1 64 40 discriminator 1 view .LVU77
ARM GAS  /var/folders/t0/g2s8z9xd75s2k51g_zcxx3qc0000gn/T//cc3ykDyu.s 			page 8


 317 0006 0068     		ldr	r0, [r0]
 318              	.LVL13:
 319              		.loc 1 64 21 discriminator 1 view .LVU78
 320 0008 38B1     		cbz	r0, .L13
  65:Core/Src/gpio_handler/gpio_handler.c ****         digital_out->state = !digital_out->state;
 321              		.loc 1 65 9 is_stmt 1 view .LVU79
 322              		.loc 1 65 42 is_stmt 0 view .LVU80
 323 000a 1A7A     		ldrb	r2, [r3, #8]	@ zero_extendqisi2
 324              		.loc 1 65 30 view .LVU81
 325 000c B2FA82F2 		clz	r2, r2
 326 0010 5209     		lsrs	r2, r2, #5
 327              		.loc 1 65 28 view .LVU82
 328 0012 1A72     		strb	r2, [r3, #8]
  66:Core/Src/gpio_handler/gpio_handler.c ****         HAL_GPIO_TogglePin(digital_out->pin.port, digital_out->pin.pin);
 329              		.loc 1 66 9 is_stmt 1 view .LVU83
 330 0014 9988     		ldrh	r1, [r3, #4]
 331 0016 FFF7FEFF 		bl	HAL_GPIO_TogglePin
 332              	.LVL14:
 333              	.L13:
  67:Core/Src/gpio_handler/gpio_handler.c ****     }
  68:Core/Src/gpio_handler/gpio_handler.c **** }
 334              		.loc 1 68 1 is_stmt 0 view .LVU84
 335 001a 08BD     		pop	{r3, pc}
 336              	.LVL15:
 337              	.L16:
 338              	.LCFI9:
 339              		.cfi_def_cfa_offset 0
 340              		.cfi_restore 3
 341              		.cfi_restore 14
 342              		.loc 1 68 1 view .LVU85
 343 001c 7047     		bx	lr
 344              		.cfi_endproc
 345              	.LFE140:
 347              		.section	.text.BuiltinLED_Init,"ax",%progbits
 348              		.align	1
 349              		.global	BuiltinLED_Init
 350              		.syntax unified
 351              		.thumb
 352              		.thumb_func
 354              	BuiltinLED_Init:
 355              	.LFB141:
  69:Core/Src/gpio_handler/gpio_handler.c **** 
  70:Core/Src/gpio_handler/gpio_handler.c **** void BuiltinLED_Init(void) {
 356              		.loc 1 70 28 is_stmt 1 view -0
 357              		.cfi_startproc
 358              		@ args = 0, pretend = 0, frame = 24
 359              		@ frame_needed = 0, uses_anonymous_args = 0
 360 0000 30B5     		push	{r4, r5, lr}
 361              	.LCFI10:
 362              		.cfi_def_cfa_offset 12
 363              		.cfi_offset 4, -12
 364              		.cfi_offset 5, -8
 365              		.cfi_offset 14, -4
 366 0002 87B0     		sub	sp, sp, #28
 367              	.LCFI11:
 368              		.cfi_def_cfa_offset 40
  71:Core/Src/gpio_handler/gpio_handler.c ****     // Note: D13 is PA5 on the Nucleo-F411RE
ARM GAS  /var/folders/t0/g2s8z9xd75s2k51g_zcxx3qc0000gn/T//cc3ykDyu.s 			page 9


  72:Core/Src/gpio_handler/gpio_handler.c ****     g_builtinLed = AssignDigitalOut((Pin_t){GPIOA, GPIO_PIN_5});
 369              		.loc 1 72 5 view .LVU87
 370              		.loc 1 72 44 is_stmt 0 view .LVU88
 371 0004 084A     		ldr	r2, .L21
 372 0006 04AB     		add	r3, sp, #16
 373 0008 92E80300 		ldm	r2, {r0, r1}
 374 000c 83E80300 		stm	r3, {r0, r1}
 375              		.loc 1 72 20 view .LVU89
 376 0010 064D     		ldr	r5, .L21+4
 377 0012 93E80600 		ldm	r3, {r1, r2}
 378 0016 6846     		mov	r0, sp
 379 0018 FFF7FEFF 		bl	AssignDigitalOut
 380              	.LVL16:
 381 001c 9DE80700 		ldm	sp, {r0, r1, r2}
 382 0020 85E80700 		stm	r5, {r0, r1, r2}
  73:Core/Src/gpio_handler/gpio_handler.c **** }
 383              		.loc 1 73 1 view .LVU90
 384 0024 07B0     		add	sp, sp, #28
 385              	.LCFI12:
 386              		.cfi_def_cfa_offset 12
 387              		@ sp needed
 388 0026 30BD     		pop	{r4, r5, pc}
 389              	.L22:
 390              		.align	2
 391              	.L21:
 392 0028 00000000 		.word	.LANCHOR0
 393 002c 00000000 		.word	g_builtinLed
 394              		.cfi_endproc
 395              	.LFE141:
 397              		.section	.text.indicate_setup_with_blinks,"ax",%progbits
 398              		.align	1
 399              		.global	indicate_setup_with_blinks
 400              		.syntax unified
 401              		.thumb
 402              		.thumb_func
 404              	indicate_setup_with_blinks:
 405              	.LVL17:
 406              	.LFB142:
  74:Core/Src/gpio_handler/gpio_handler.c **** 
  75:Core/Src/gpio_handler/gpio_handler.c **** void indicate_setup_with_blinks(int num_blinks, u32 delay_ms) {
 407              		.loc 1 75 63 is_stmt 1 view -0
 408              		.cfi_startproc
 409              		@ args = 0, pretend = 0, frame = 0
 410              		@ frame_needed = 0, uses_anonymous_args = 0
 411              		.loc 1 75 63 is_stmt 0 view .LVU92
 412 0000 70B5     		push	{r4, r5, r6, lr}
 413              	.LCFI13:
 414              		.cfi_def_cfa_offset 16
 415              		.cfi_offset 4, -16
 416              		.cfi_offset 5, -12
 417              		.cfi_offset 6, -8
 418              		.cfi_offset 14, -4
 419 0002 0546     		mov	r5, r0
 420 0004 0E46     		mov	r6, r1
  76:Core/Src/gpio_handler/gpio_handler.c ****     for (int i = 0; i < num_blinks * 2; i++) {
 421              		.loc 1 76 5 is_stmt 1 view .LVU93
 422              	.LBB6:
ARM GAS  /var/folders/t0/g2s8z9xd75s2k51g_zcxx3qc0000gn/T//cc3ykDyu.s 			page 10


 423              		.loc 1 76 10 view .LVU94
 424              	.LVL18:
 425              		.loc 1 76 14 is_stmt 0 view .LVU95
 426 0006 0024     		movs	r4, #0
 427              		.loc 1 76 5 view .LVU96
 428 0008 06E0     		b	.L24
 429              	.LVL19:
 430              	.L25:
  77:Core/Src/gpio_handler/gpio_handler.c ****         ToggleDigitalOut(&g_builtinLed);
 431              		.loc 1 77 9 is_stmt 1 view .LVU97
 432 000a 0748     		ldr	r0, .L27
 433 000c FFF7FEFF 		bl	ToggleDigitalOut
 434              	.LVL20:
  78:Core/Src/gpio_handler/gpio_handler.c ****         HAL_Delay(delay_ms);
 435              		.loc 1 78 9 view .LVU98
 436 0010 3046     		mov	r0, r6
 437 0012 FFF7FEFF 		bl	HAL_Delay
 438              	.LVL21:
  76:Core/Src/gpio_handler/gpio_handler.c ****     for (int i = 0; i < num_blinks * 2; i++) {
 439              		.loc 1 76 42 discriminator 3 view .LVU99
 440 0016 0134     		adds	r4, r4, #1
 441              	.LVL22:
 442              	.L24:
  76:Core/Src/gpio_handler/gpio_handler.c ****     for (int i = 0; i < num_blinks * 2; i++) {
 443              		.loc 1 76 23 discriminator 1 view .LVU100
 444 0018 B4EB450F 		cmp	r4, r5, lsl #1
 445 001c F5DB     		blt	.L25
 446              	.LBE6:
  79:Core/Src/gpio_handler/gpio_handler.c ****     }
  80:Core/Src/gpio_handler/gpio_handler.c ****     WriteDigitalOut(&g_builtinLed, 0);
 447              		.loc 1 80 5 view .LVU101
 448 001e 0021     		movs	r1, #0
 449 0020 0148     		ldr	r0, .L27
 450 0022 FFF7FEFF 		bl	WriteDigitalOut
 451              	.LVL23:
  81:Core/Src/gpio_handler/gpio_handler.c **** }
 452              		.loc 1 81 1 is_stmt 0 view .LVU102
 453 0026 70BD     		pop	{r4, r5, r6, pc}
 454              	.LVL24:
 455              	.L28:
 456              		.loc 1 81 1 view .LVU103
 457              		.align	2
 458              	.L27:
 459 0028 00000000 		.word	g_builtinLed
 460              		.cfi_endproc
 461              	.LFE142:
 463              		.section	.text.ToggleLED,"ax",%progbits
 464              		.align	1
 465              		.global	ToggleLED
 466              		.syntax unified
 467              		.thumb
 468              		.thumb_func
 470              	ToggleLED:
 471              	.LVL25:
 472              	.LFB143:
  82:Core/Src/gpio_handler/gpio_handler.c **** 
  83:Core/Src/gpio_handler/gpio_handler.c **** void ToggleLED(DigitalOut *led, u32 interval, u32 *last_tick_timer) {
ARM GAS  /var/folders/t0/g2s8z9xd75s2k51g_zcxx3qc0000gn/T//cc3ykDyu.s 			page 11


 473              		.loc 1 83 69 is_stmt 1 view -0
 474              		.cfi_startproc
 475              		@ args = 0, pretend = 0, frame = 0
 476              		@ frame_needed = 0, uses_anonymous_args = 0
 477              		.loc 1 83 69 is_stmt 0 view .LVU105
 478 0000 10B5     		push	{r4, lr}
 479              	.LCFI14:
 480              		.cfi_def_cfa_offset 8
 481              		.cfi_offset 4, -8
 482              		.cfi_offset 14, -4
 483 0002 0446     		mov	r4, r0
 484 0004 0846     		mov	r0, r1
 485              	.LVL26:
  84:Core/Src/gpio_handler/gpio_handler.c ****     if (timer_handler(interval, last_tick_timer)) {
 486              		.loc 1 84 5 is_stmt 1 view .LVU106
 487              		.loc 1 84 9 is_stmt 0 view .LVU107
 488 0006 1146     		mov	r1, r2
 489              	.LVL27:
 490              		.loc 1 84 9 view .LVU108
 491 0008 FFF7FEFF 		bl	timer_handler
 492              	.LVL28:
 493              		.loc 1 84 8 discriminator 1 view .LVU109
 494 000c 00B9     		cbnz	r0, .L32
 495              	.L29:
  85:Core/Src/gpio_handler/gpio_handler.c ****         ToggleDigitalOut(led);
  86:Core/Src/gpio_handler/gpio_handler.c ****     }
  87:Core/Src/gpio_handler/gpio_handler.c **** }
 496              		.loc 1 87 1 view .LVU110
 497 000e 10BD     		pop	{r4, pc}
 498              	.LVL29:
 499              	.L32:
  85:Core/Src/gpio_handler/gpio_handler.c ****         ToggleDigitalOut(led);
 500              		.loc 1 85 9 is_stmt 1 view .LVU111
 501 0010 2046     		mov	r0, r4
 502 0012 FFF7FEFF 		bl	ToggleDigitalOut
 503              	.LVL30:
 504              		.loc 1 87 1 is_stmt 0 view .LVU112
 505 0016 FAE7     		b	.L29
 506              		.cfi_endproc
 507              	.LFE143:
 509              		.section	.text.AssignDigitalIn_IT,"ax",%progbits
 510              		.align	1
 511              		.global	AssignDigitalIn_IT
 512              		.syntax unified
 513              		.thumb
 514              		.thumb_func
 516              	AssignDigitalIn_IT:
 517              	.LFB144:
  88:Core/Src/gpio_handler/gpio_handler.c **** 
  89:Core/Src/gpio_handler/gpio_handler.c **** // --- Digital Input Functions ---
  90:Core/Src/gpio_handler/gpio_handler.c **** 
  91:Core/Src/gpio_handler/gpio_handler.c **** /**
  92:Core/Src/gpio_handler/gpio_handler.c ****  * @brief  Configures a GPIO pin as an interrupt and enables its corresponding NVIC line.
  93:Core/Src/gpio_handler/gpio_handler.c ****  * @note   This function is intended for dynamic configuration. Static hardware like the
  94:Core/Src/gpio_handler/gpio_handler.c ****  * on-board button is best configured directly in MX_GPIO_Init().
  95:Core/Src/gpio_handler/gpio_handler.c ****  */
  96:Core/Src/gpio_handler/gpio_handler.c **** void AssignDigitalIn_IT(Pin_t pin) {
ARM GAS  /var/folders/t0/g2s8z9xd75s2k51g_zcxx3qc0000gn/T//cc3ykDyu.s 			page 12


 518              		.loc 1 96 36 is_stmt 1 view -0
 519              		.cfi_startproc
 520              		@ args = 0, pretend = 0, frame = 32
 521              		@ frame_needed = 0, uses_anonymous_args = 0
 522 0000 10B5     		push	{r4, lr}
 523              	.LCFI15:
 524              		.cfi_def_cfa_offset 8
 525              		.cfi_offset 4, -8
 526              		.cfi_offset 14, -4
 527 0002 88B0     		sub	sp, sp, #32
 528              	.LCFI16:
 529              		.cfi_def_cfa_offset 40
 530 0004 CDE90001 		strd	r0, r1, [sp]
  97:Core/Src/gpio_handler/gpio_handler.c ****     GPIO_InitTypeDef GPIO_InitStruct = {0};
 531              		.loc 1 97 5 view .LVU114
 532              		.loc 1 97 22 is_stmt 0 view .LVU115
 533 0008 03A9     		add	r1, sp, #12
 534 000a 0023     		movs	r3, #0
 535 000c 0393     		str	r3, [sp, #12]
 536 000e 4B60     		str	r3, [r1, #4]
 537 0010 8B60     		str	r3, [r1, #8]
 538 0012 CB60     		str	r3, [r1, #12]
 539 0014 0B61     		str	r3, [r1, #16]
  98:Core/Src/gpio_handler/gpio_handler.c ****     IRQn_Type EXTI_IRQn;
 540              		.loc 1 98 5 is_stmt 1 view .LVU116
  99:Core/Src/gpio_handler/gpio_handler.c **** 
 100:Core/Src/gpio_handler/gpio_handler.c ****     GPIO_InitStruct.Pin = pin.pin;
 541              		.loc 1 100 5 view .LVU117
 542              		.loc 1 100 30 is_stmt 0 view .LVU118
 543 0016 BDF80440 		ldrh	r4, [sp, #4]
 544              		.loc 1 100 25 view .LVU119
 545 001a 0394     		str	r4, [sp, #12]
 101:Core/Src/gpio_handler/gpio_handler.c ****     GPIO_InitStruct.Mode = GPIO_MODE_IT_RISING;
 546              		.loc 1 101 5 is_stmt 1 view .LVU120
 547              		.loc 1 101 26 is_stmt 0 view .LVU121
 548 001c 4FF48813 		mov	r3, #1114112
 549 0020 0493     		str	r3, [sp, #16]
 102:Core/Src/gpio_handler/gpio_handler.c ****     GPIO_InitStruct.Pull = GPIO_PULLDOWN; // Set to pull-down for a button connected to 3.3V
 550              		.loc 1 102 5 is_stmt 1 view .LVU122
 551              		.loc 1 102 26 is_stmt 0 view .LVU123
 552 0022 0223     		movs	r3, #2
 553 0024 0593     		str	r3, [sp, #20]
 103:Core/Src/gpio_handler/gpio_handler.c ****     HAL_GPIO_Init(pin.port, &GPIO_InitStruct);
 554              		.loc 1 103 5 is_stmt 1 view .LVU124
 555 0026 FFF7FEFF 		bl	HAL_GPIO_Init
 556              	.LVL31:
 104:Core/Src/gpio_handler/gpio_handler.c **** 
 105:Core/Src/gpio_handler/gpio_handler.c ****     // Determine the correct EXTI IRQn based on the pin number
 106:Core/Src/gpio_handler/gpio_handler.c ****     switch (pin.pin) {
 557              		.loc 1 106 5 view .LVU125
 558 002a 202C     		cmp	r4, #32
 559 002c 19D8     		bhi	.L34
 560 002e 23B2     		sxth	r3, r4
 561 0030 002B     		cmp	r3, #0
 562 0032 4ED0     		beq	.L33
 563 0034 013C     		subs	r4, r4, #1
 564 0036 1F2C     		cmp	r4, #31
ARM GAS  /var/folders/t0/g2s8z9xd75s2k51g_zcxx3qc0000gn/T//cc3ykDyu.s 			page 13


 565 0038 4BD8     		bhi	.L33
 566 003a DFE804F0 		tbb	[pc, r4]
 567              	.L37:
 568 003e 10       		.byte	(.L42-.L37)/2
 569 003f 41       		.byte	(.L47-.L37)/2
 570 0040 4A       		.byte	(.L33-.L37)/2
 571 0041 39       		.byte	(.L40-.L37)/2
 572 0042 4A       		.byte	(.L33-.L37)/2
 573 0043 4A       		.byte	(.L33-.L37)/2
 574 0044 4A       		.byte	(.L33-.L37)/2
 575 0045 3B       		.byte	(.L39-.L37)/2
 576 0046 4A       		.byte	(.L33-.L37)/2
 577 0047 4A       		.byte	(.L33-.L37)/2
 578 0048 4A       		.byte	(.L33-.L37)/2
 579 0049 4A       		.byte	(.L33-.L37)/2
 580 004a 4A       		.byte	(.L33-.L37)/2
 581 004b 4A       		.byte	(.L33-.L37)/2
 582 004c 4A       		.byte	(.L33-.L37)/2
 583 004d 3D       		.byte	(.L38-.L37)/2
 584 004e 4A       		.byte	(.L33-.L37)/2
 585 004f 4A       		.byte	(.L33-.L37)/2
 586 0050 4A       		.byte	(.L33-.L37)/2
 587 0051 4A       		.byte	(.L33-.L37)/2
 588 0052 4A       		.byte	(.L33-.L37)/2
 589 0053 4A       		.byte	(.L33-.L37)/2
 590 0054 4A       		.byte	(.L33-.L37)/2
 591 0055 4A       		.byte	(.L33-.L37)/2
 592 0056 4A       		.byte	(.L33-.L37)/2
 593 0057 4A       		.byte	(.L33-.L37)/2
 594 0058 4A       		.byte	(.L33-.L37)/2
 595 0059 4A       		.byte	(.L33-.L37)/2
 596 005a 4A       		.byte	(.L33-.L37)/2
 597 005b 4A       		.byte	(.L33-.L37)/2
 598 005c 4A       		.byte	(.L33-.L37)/2
 599 005d 3F       		.byte	(.L36-.L37)/2
 600              		.p2align 1
 601              	.L42:
 602 005e 0624     		movs	r4, #6
 603 0060 2FE0     		b	.L41
 604              	.L34:
 605 0062 B4F5806F 		cmp	r4, #1024
 606 0066 36D0     		beq	.L48
 607 0068 0BD9     		bls	.L60
 608 006a B4F5005F 		cmp	r4, #8192
 609 006e 38D0     		beq	.L53
 610 0070 16D8     		bhi	.L45
 611 0072 B4F5006F 		cmp	r4, #2048
 612 0076 36D0     		beq	.L54
 613 0078 B4F5805F 		cmp	r4, #4096
 614 007c 29D1     		bne	.L33
 107:Core/Src/gpio_handler/gpio_handler.c ****         case GPIO_PIN_0:  EXTI_IRQn = EXTI0_IRQn; break;
 108:Core/Src/gpio_handler/gpio_handler.c ****         case GPIO_PIN_1:  EXTI_IRQn = EXTI1_IRQn; break;
 109:Core/Src/gpio_handler/gpio_handler.c ****         case GPIO_PIN_2:  EXTI_IRQn = EXTI2_IRQn; break;
 110:Core/Src/gpio_handler/gpio_handler.c ****         case GPIO_PIN_3:  EXTI_IRQn = EXTI3_IRQn; break;
 111:Core/Src/gpio_handler/gpio_handler.c ****         case GPIO_PIN_4:  EXTI_IRQn = EXTI4_IRQn; break;
 112:Core/Src/gpio_handler/gpio_handler.c ****         case GPIO_PIN_5:  case GPIO_PIN_6:  case GPIO_PIN_7:  case GPIO_PIN_8:  case GPIO_PIN_9:
 113:Core/Src/gpio_handler/gpio_handler.c ****             EXTI_IRQn = EXTI9_5_IRQn; break;
ARM GAS  /var/folders/t0/g2s8z9xd75s2k51g_zcxx3qc0000gn/T//cc3ykDyu.s 			page 14


 114:Core/Src/gpio_handler/gpio_handler.c ****         case GPIO_PIN_10: case GPIO_PIN_11: case GPIO_PIN_12: case GPIO_PIN_13: case GPIO_PIN_14: c
 115:Core/Src/gpio_handler/gpio_handler.c ****             EXTI_IRQn = EXTI15_10_IRQn; break;
 615              		.loc 1 115 23 is_stmt 0 view .LVU126
 616 007e 2824     		movs	r4, #40
 617 0080 1FE0     		b	.L41
 618              	.L60:
 106:Core/Src/gpio_handler/gpio_handler.c ****         case GPIO_PIN_0:  EXTI_IRQn = EXTI0_IRQn; break;
 619              		.loc 1 106 5 view .LVU127
 620 0082 B4F5807F 		cmp	r4, #256
 621 0086 28D0     		beq	.L49
 622 0088 05D8     		bhi	.L44
 623 008a 402C     		cmp	r4, #64
 624 008c 27D0     		beq	.L50
 625 008e 802C     		cmp	r4, #128
 626 0090 1FD1     		bne	.L33
 113:Core/Src/gpio_handler/gpio_handler.c ****         case GPIO_PIN_10: case GPIO_PIN_11: case GPIO_PIN_12: case GPIO_PIN_13: case GPIO_PIN_14: c
 627              		.loc 1 113 23 view .LVU128
 628 0092 1724     		movs	r4, #23
 629 0094 15E0     		b	.L41
 630              	.L44:
 106:Core/Src/gpio_handler/gpio_handler.c ****         case GPIO_PIN_0:  EXTI_IRQn = EXTI0_IRQn; break;
 631              		.loc 1 106 5 view .LVU129
 632 0096 B4F5007F 		cmp	r4, #512
 633 009a 1AD1     		bne	.L33
 113:Core/Src/gpio_handler/gpio_handler.c ****         case GPIO_PIN_10: case GPIO_PIN_11: case GPIO_PIN_12: case GPIO_PIN_13: case GPIO_PIN_14: c
 634              		.loc 1 113 23 view .LVU130
 635 009c 1724     		movs	r4, #23
 636 009e 10E0     		b	.L41
 637              	.L45:
 106:Core/Src/gpio_handler/gpio_handler.c ****         case GPIO_PIN_0:  EXTI_IRQn = EXTI0_IRQn; break;
 638              		.loc 1 106 5 view .LVU131
 639 00a0 B4F5804F 		cmp	r4, #16384
 640 00a4 21D0     		beq	.L56
 641 00a6 B4F5004F 		cmp	r4, #32768
 642 00aa 12D1     		bne	.L33
 643              		.loc 1 115 23 view .LVU132
 644 00ac 2824     		movs	r4, #40
 645 00ae 08E0     		b	.L41
 646              	.L40:
 109:Core/Src/gpio_handler/gpio_handler.c ****         case GPIO_PIN_3:  EXTI_IRQn = EXTI3_IRQn; break;
 647              		.loc 1 109 27 is_stmt 1 view .LVU133
 648              	.LVL32:
 109:Core/Src/gpio_handler/gpio_handler.c ****         case GPIO_PIN_3:  EXTI_IRQn = EXTI3_IRQn; break;
 649              		.loc 1 109 51 view .LVU134
 109:Core/Src/gpio_handler/gpio_handler.c ****         case GPIO_PIN_3:  EXTI_IRQn = EXTI3_IRQn; break;
 650              		.loc 1 109 37 is_stmt 0 view .LVU135
 651 00b0 0824     		movs	r4, #8
 109:Core/Src/gpio_handler/gpio_handler.c ****         case GPIO_PIN_3:  EXTI_IRQn = EXTI3_IRQn; break;
 652              		.loc 1 109 51 view .LVU136
 653 00b2 06E0     		b	.L41
 654              	.LVL33:
 655              	.L39:
 110:Core/Src/gpio_handler/gpio_handler.c ****         case GPIO_PIN_4:  EXTI_IRQn = EXTI4_IRQn; break;
 656              		.loc 1 110 27 is_stmt 1 view .LVU137
 110:Core/Src/gpio_handler/gpio_handler.c ****         case GPIO_PIN_4:  EXTI_IRQn = EXTI4_IRQn; break;
 657              		.loc 1 110 51 view .LVU138
 110:Core/Src/gpio_handler/gpio_handler.c ****         case GPIO_PIN_4:  EXTI_IRQn = EXTI4_IRQn; break;
ARM GAS  /var/folders/t0/g2s8z9xd75s2k51g_zcxx3qc0000gn/T//cc3ykDyu.s 			page 15


 658              		.loc 1 110 37 is_stmt 0 view .LVU139
 659 00b4 0924     		movs	r4, #9
 110:Core/Src/gpio_handler/gpio_handler.c ****         case GPIO_PIN_4:  EXTI_IRQn = EXTI4_IRQn; break;
 660              		.loc 1 110 51 view .LVU140
 661 00b6 04E0     		b	.L41
 662              	.LVL34:
 663              	.L38:
 111:Core/Src/gpio_handler/gpio_handler.c ****         case GPIO_PIN_5:  case GPIO_PIN_6:  case GPIO_PIN_7:  case GPIO_PIN_8:  case GPIO_PIN_9:
 664              		.loc 1 111 27 is_stmt 1 view .LVU141
 111:Core/Src/gpio_handler/gpio_handler.c ****         case GPIO_PIN_5:  case GPIO_PIN_6:  case GPIO_PIN_7:  case GPIO_PIN_8:  case GPIO_PIN_9:
 665              		.loc 1 111 51 view .LVU142
 111:Core/Src/gpio_handler/gpio_handler.c ****         case GPIO_PIN_5:  case GPIO_PIN_6:  case GPIO_PIN_7:  case GPIO_PIN_8:  case GPIO_PIN_9:
 666              		.loc 1 111 37 is_stmt 0 view .LVU143
 667 00b8 0A24     		movs	r4, #10
 111:Core/Src/gpio_handler/gpio_handler.c ****         case GPIO_PIN_5:  case GPIO_PIN_6:  case GPIO_PIN_7:  case GPIO_PIN_8:  case GPIO_PIN_9:
 668              		.loc 1 111 51 view .LVU144
 669 00ba 02E0     		b	.L41
 670              	.LVL35:
 671              	.L36:
 113:Core/Src/gpio_handler/gpio_handler.c ****         case GPIO_PIN_10: case GPIO_PIN_11: case GPIO_PIN_12: case GPIO_PIN_13: case GPIO_PIN_14: c
 672              		.loc 1 113 23 view .LVU145
 673 00bc 1724     		movs	r4, #23
 674 00be 00E0     		b	.L41
 675              	.L47:
 108:Core/Src/gpio_handler/gpio_handler.c ****         case GPIO_PIN_2:  EXTI_IRQn = EXTI2_IRQn; break;
 676              		.loc 1 108 37 view .LVU146
 677 00c0 0724     		movs	r4, #7
 678              	.L41:
 679              	.LVL36:
 116:Core/Src/gpio_handler/gpio_handler.c ****         default: return;
 117:Core/Src/gpio_handler/gpio_handler.c ****     }
 118:Core/Src/gpio_handler/gpio_handler.c **** 
 119:Core/Src/gpio_handler/gpio_handler.c ****     HAL_NVIC_SetPriority(EXTI_IRQn, 2, 0);
 680              		.loc 1 119 5 is_stmt 1 view .LVU147
 681 00c2 0022     		movs	r2, #0
 682 00c4 0221     		movs	r1, #2
 683 00c6 2046     		mov	r0, r4
 684 00c8 FFF7FEFF 		bl	HAL_NVIC_SetPriority
 685              	.LVL37:
 120:Core/Src/gpio_handler/gpio_handler.c ****     HAL_NVIC_EnableIRQ(EXTI_IRQn);
 686              		.loc 1 120 5 view .LVU148
 687 00cc 2046     		mov	r0, r4
 688 00ce FFF7FEFF 		bl	HAL_NVIC_EnableIRQ
 689              	.LVL38:
 690              	.L33:
 121:Core/Src/gpio_handler/gpio_handler.c **** }
 691              		.loc 1 121 1 is_stmt 0 view .LVU149
 692 00d2 08B0     		add	sp, sp, #32
 693              	.LCFI17:
 694              		.cfi_remember_state
 695              		.cfi_def_cfa_offset 8
 696              		@ sp needed
 697 00d4 10BD     		pop	{r4, pc}
 698              	.L48:
 699              	.LCFI18:
 700              		.cfi_restore_state
 115:Core/Src/gpio_handler/gpio_handler.c ****         default: return;
ARM GAS  /var/folders/t0/g2s8z9xd75s2k51g_zcxx3qc0000gn/T//cc3ykDyu.s 			page 16


 701              		.loc 1 115 23 view .LVU150
 702 00d6 2824     		movs	r4, #40
 703 00d8 F3E7     		b	.L41
 704              	.L49:
 113:Core/Src/gpio_handler/gpio_handler.c ****         case GPIO_PIN_10: case GPIO_PIN_11: case GPIO_PIN_12: case GPIO_PIN_13: case GPIO_PIN_14: c
 705              		.loc 1 113 23 view .LVU151
 706 00da 1724     		movs	r4, #23
 707 00dc F1E7     		b	.L41
 708              	.L50:
 709 00de 1724     		movs	r4, #23
 710 00e0 EFE7     		b	.L41
 711              	.L53:
 115:Core/Src/gpio_handler/gpio_handler.c ****         default: return;
 712              		.loc 1 115 23 view .LVU152
 713 00e2 2824     		movs	r4, #40
 714 00e4 EDE7     		b	.L41
 715              	.L54:
 716 00e6 2824     		movs	r4, #40
 717 00e8 EBE7     		b	.L41
 718              	.L56:
 719 00ea 2824     		movs	r4, #40
 720 00ec E9E7     		b	.L41
 721              		.cfi_endproc
 722              	.LFE144:
 724              		.section	.text.DigitalIn_Init,"ax",%progbits
 725              		.align	1
 726              		.global	DigitalIn_Init
 727              		.syntax unified
 728              		.thumb
 729              		.thumb_func
 731              	DigitalIn_Init:
 732              	.LVL39:
 733              	.LFB145:
 122:Core/Src/gpio_handler/gpio_handler.c **** 
 123:Core/Src/gpio_handler/gpio_handler.c **** /**
 124:Core/Src/gpio_handler/gpio_handler.c ****  * @brief Initializes the fields of a DigitalIn software struct.
 125:Core/Src/gpio_handler/gpio_handler.c ****  */
 126:Core/Src/gpio_handler/gpio_handler.c **** void DigitalIn_Init(DigitalIn* digital_in, Pin_t pin) {
 734              		.loc 1 126 55 is_stmt 1 view -0
 735              		.cfi_startproc
 736              		@ args = 0, pretend = 0, frame = 8
 737              		@ frame_needed = 0, uses_anonymous_args = 0
 738              		@ link register save eliminated.
 739              		.loc 1 126 55 is_stmt 0 view .LVU154
 740 0000 82B0     		sub	sp, sp, #8
 741              	.LCFI19:
 742              		.cfi_def_cfa_offset 8
 743 0002 02AB     		add	r3, sp, #8
 744 0004 03E90600 		stmdb	r3, {r1, r2}
 127:Core/Src/gpio_handler/gpio_handler.c ****     if (digital_in == NULL) return;
 745              		.loc 1 127 5 is_stmt 1 view .LVU155
 746              		.loc 1 127 8 is_stmt 0 view .LVU156
 747 0008 50B1     		cbz	r0, .L61
 748 000a 0346     		mov	r3, r0
 128:Core/Src/gpio_handler/gpio_handler.c ****     digital_in->pin = pin;
 749              		.loc 1 128 5 is_stmt 1 view .LVU157
 750              		.loc 1 128 21 is_stmt 0 view .LVU158
ARM GAS  /var/folders/t0/g2s8z9xd75s2k51g_zcxx3qc0000gn/T//cc3ykDyu.s 			page 17


 751 000c 02AA     		add	r2, sp, #8
 752 000e 12E90300 		ldmdb	r2, {r0, r1}
 753              	.LVL40:
 754              		.loc 1 128 21 view .LVU159
 755 0012 83E80300 		stm	r3, {r0, r1}
 129:Core/Src/gpio_handler/gpio_handler.c ****     digital_in->state = GPIO_PIN_RESET;
 756              		.loc 1 129 5 is_stmt 1 view .LVU160
 757              		.loc 1 129 23 is_stmt 0 view .LVU161
 758 0016 0022     		movs	r2, #0
 759 0018 1A72     		strb	r2, [r3, #8]
 130:Core/Src/gpio_handler/gpio_handler.c ****     digital_in->last_stable_state = GPIO_PIN_RESET;
 760              		.loc 1 130 5 is_stmt 1 view .LVU162
 761              		.loc 1 130 35 is_stmt 0 view .LVU163
 762 001a 1A74     		strb	r2, [r3, #16]
 131:Core/Src/gpio_handler/gpio_handler.c ****     digital_in->reading = GPIO_PIN_RESET;
 763              		.loc 1 131 5 is_stmt 1 view .LVU164
 764              		.loc 1 131 25 is_stmt 0 view .LVU165
 765 001c 5A72     		strb	r2, [r3, #9]
 132:Core/Src/gpio_handler/gpio_handler.c ****     digital_in->last_debounce_time = 0;
 766              		.loc 1 132 5 is_stmt 1 view .LVU166
 767              		.loc 1 132 36 is_stmt 0 view .LVU167
 768 001e DA60     		str	r2, [r3, #12]
 769              	.LVL41:
 770              	.L61:
 133:Core/Src/gpio_handler/gpio_handler.c **** }
 771              		.loc 1 133 1 view .LVU168
 772 0020 02B0     		add	sp, sp, #8
 773              	.LCFI20:
 774              		.cfi_def_cfa_offset 0
 775              		@ sp needed
 776 0022 7047     		bx	lr
 777              		.cfi_endproc
 778              	.LFE145:
 780              		.section	.text.BuiltinPushButton_Init,"ax",%progbits
 781              		.align	1
 782              		.global	BuiltinPushButton_Init
 783              		.syntax unified
 784              		.thumb
 785              		.thumb_func
 787              	BuiltinPushButton_Init:
 788              	.LFB146:
 134:Core/Src/gpio_handler/gpio_handler.c **** 
 135:Core/Src/gpio_handler/gpio_handler.c **** 
 136:Core/Src/gpio_handler/gpio_handler.c **** /**
 137:Core/Src/gpio_handler/gpio_handler.c ****  * @brief Initializes the hardware and software state for the built-in push button.
 138:Core/Src/gpio_handler/gpio_handler.c ****  */
 139:Core/Src/gpio_handler/gpio_handler.c **** void BuiltinPushButton_Init(void) {
 789              		.loc 1 139 35 is_stmt 1 view -0
 790              		.cfi_startproc
 791              		@ args = 0, pretend = 0, frame = 8
 792              		@ frame_needed = 0, uses_anonymous_args = 0
 793 0000 00B5     		push	{lr}
 794              	.LCFI21:
 795              		.cfi_def_cfa_offset 4
 796              		.cfi_offset 14, -4
 797 0002 83B0     		sub	sp, sp, #12
 798              	.LCFI22:
ARM GAS  /var/folders/t0/g2s8z9xd75s2k51g_zcxx3qc0000gn/T//cc3ykDyu.s 			page 18


 799              		.cfi_def_cfa_offset 16
 140:Core/Src/gpio_handler/gpio_handler.c ****     Pin_t button_pin = {GPIOC, GPIO_PIN_13};
 800              		.loc 1 140 5 view .LVU170
 801              		.loc 1 140 11 is_stmt 0 view .LVU171
 802 0004 064A     		ldr	r2, .L66
 803 0006 92E80300 		ldm	r2, {r0, r1}
 804 000a CDE90001 		strd	r0, r1, [sp]
 141:Core/Src/gpio_handler/gpio_handler.c ****     // The hardware part (setting pin to IT mode) is now done in MX_GPIO_Init()
 142:Core/Src/gpio_handler/gpio_handler.c ****     // This function just sets up the software struct.
 143:Core/Src/gpio_handler/gpio_handler.c ****     DigitalIn_Init(&g_builtinPushButton, button_pin);
 805              		.loc 1 143 5 is_stmt 1 view .LVU172
 806 000e DDE90012 		ldrd	r1, r2, [sp]
 807 0012 0448     		ldr	r0, .L66+4
 808 0014 FFF7FEFF 		bl	DigitalIn_Init
 809              	.LVL42:
 144:Core/Src/gpio_handler/gpio_handler.c **** }
 810              		.loc 1 144 1 is_stmt 0 view .LVU173
 811 0018 03B0     		add	sp, sp, #12
 812              	.LCFI23:
 813              		.cfi_def_cfa_offset 4
 814              		@ sp needed
 815 001a 5DF804FB 		ldr	pc, [sp], #4
 816              	.L67:
 817 001e 00BF     		.align	2
 818              	.L66:
 819 0020 08000000 		.word	.LANCHOR0+8
 820 0024 00000000 		.word	g_builtinPushButton
 821              		.cfi_endproc
 822              	.LFE146:
 824              		.section	.rodata.HAL_GPIO_EXTI_Callback.str1.4,"aMS",%progbits,1
 825              		.align	2
 826              	.LC2:
 827 0000 3D3D3D20 		.ascii	"=== Data Logging STARTED ===\015\012\000"
 827      44617461 
 827      204C6F67 
 827      67696E67 
 827      20535441 
 828 001f 00       		.align	2
 829              	.LC3:
 830 0020 3D3D3D20 		.ascii	"=== Data Logging STOPPED ===\015\012\000"
 830      44617461 
 830      204C6F67 
 830      67696E67 
 830      2053544F 
 831              		.section	.text.HAL_GPIO_EXTI_Callback,"ax",%progbits
 832              		.align	1
 833              		.global	HAL_GPIO_EXTI_Callback
 834              		.syntax unified
 835              		.thumb
 836              		.thumb_func
 838              	HAL_GPIO_EXTI_Callback:
 839              	.LVL43:
 840              	.LFB147:
 145:Core/Src/gpio_handler/gpio_handler.c **** 
 146:Core/Src/gpio_handler/gpio_handler.c **** 
 147:Core/Src/gpio_handler/gpio_handler.c **** // --- HAL GPIO Callback ---
 148:Core/Src/gpio_handler/gpio_handler.c **** /**
ARM GAS  /var/folders/t0/g2s8z9xd75s2k51g_zcxx3qc0000gn/T//cc3ykDyu.s 			page 19


 149:Core/Src/gpio_handler/gpio_handler.c ****   * @brief  EXTI line detection callbacks.
 150:Core/Src/gpio_handler/gpio_handler.c ****   * @param  GPIO_Pin: Specifies the pins connected to the EXTI line.
 151:Core/Src/gpio_handler/gpio_handler.c ****   * @retval None
 152:Core/Src/gpio_handler/gpio_handler.c ****   */
 153:Core/Src/gpio_handler/gpio_handler.c **** void HAL_GPIO_EXTI_Callback(u16 GPIO_Pin)
 154:Core/Src/gpio_handler/gpio_handler.c **** {
 841              		.loc 1 154 1 is_stmt 1 view -0
 842              		.cfi_startproc
 843              		@ args = 0, pretend = 0, frame = 0
 844              		@ frame_needed = 0, uses_anonymous_args = 0
 845              		.loc 1 154 1 is_stmt 0 view .LVU175
 846 0000 38B5     		push	{r3, r4, r5, lr}
 847              	.LCFI24:
 848              		.cfi_def_cfa_offset 16
 849              		.cfi_offset 3, -16
 850              		.cfi_offset 4, -12
 851              		.cfi_offset 5, -8
 852              		.cfi_offset 14, -4
 853 0002 0446     		mov	r4, r0
 155:Core/Src/gpio_handler/gpio_handler.c ****     static u32 last_accepted_press_time = 0;
 854              		.loc 1 155 5 is_stmt 1 view .LVU176
 156:Core/Src/gpio_handler/gpio_handler.c ****     u32 current_time = HAL_GetTick();
 855              		.loc 1 156 5 view .LVU177
 856              		.loc 1 156 24 is_stmt 0 view .LVU178
 857 0004 FFF7FEFF 		bl	HAL_GetTick
 858              	.LVL44:
 157:Core/Src/gpio_handler/gpio_handler.c **** 
 158:Core/Src/gpio_handler/gpio_handler.c ****     if (GPIO_Pin == g_builtinPushButton.pin.pin) {
 859              		.loc 1 158 5 is_stmt 1 view .LVU179
 860              		.loc 1 158 44 is_stmt 0 view .LVU180
 861 0008 114B     		ldr	r3, .L74
 862 000a 9B88     		ldrh	r3, [r3, #4]
 863              		.loc 1 158 8 view .LVU181
 864 000c A342     		cmp	r3, r4
 865 000e 00D0     		beq	.L73
 866              	.LVL45:
 867              	.L68:
 159:Core/Src/gpio_handler/gpio_handler.c ****         if (current_time - last_accepted_press_time > DEBOUNCE_DELAY_MS) {
 160:Core/Src/gpio_handler/gpio_handler.c ****             g_is_logging_active = !g_is_logging_active;
 161:Core/Src/gpio_handler/gpio_handler.c ****             if (g_is_logging_active) {
 162:Core/Src/gpio_handler/gpio_handler.c ****                 WriteDigitalOut(&g_builtinLed, 1);
 163:Core/Src/gpio_handler/gpio_handler.c ****                 WriteUART_Blocking("=== Data Logging STARTED ===\r\n");
 164:Core/Src/gpio_handler/gpio_handler.c ****             } else {
 165:Core/Src/gpio_handler/gpio_handler.c ****                 WriteDigitalOut(&g_builtinLed, 0);
 166:Core/Src/gpio_handler/gpio_handler.c ****                 WriteUART_Blocking("=== Data Logging STOPPED ===\r\n");
 167:Core/Src/gpio_handler/gpio_handler.c ****             }
 168:Core/Src/gpio_handler/gpio_handler.c ****             last_accepted_press_time = current_time;
 169:Core/Src/gpio_handler/gpio_handler.c ****         }
 170:Core/Src/gpio_handler/gpio_handler.c ****     }
 171:Core/Src/gpio_handler/gpio_handler.c **** }
 868              		.loc 1 171 1 view .LVU182
 869 0010 38BD     		pop	{r3, r4, r5, pc}
 870              	.LVL46:
 871              	.L73:
 872              		.loc 1 171 1 view .LVU183
 873 0012 0546     		mov	r5, r0
 159:Core/Src/gpio_handler/gpio_handler.c ****         if (current_time - last_accepted_press_time > DEBOUNCE_DELAY_MS) {
ARM GAS  /var/folders/t0/g2s8z9xd75s2k51g_zcxx3qc0000gn/T//cc3ykDyu.s 			page 20


 874              		.loc 1 159 9 is_stmt 1 view .LVU184
 159:Core/Src/gpio_handler/gpio_handler.c ****         if (current_time - last_accepted_press_time > DEBOUNCE_DELAY_MS) {
 875              		.loc 1 159 26 is_stmt 0 view .LVU185
 876 0014 0F4B     		ldr	r3, .L74+4
 877 0016 1B68     		ldr	r3, [r3]
 878 0018 C31A     		subs	r3, r0, r3
 159:Core/Src/gpio_handler/gpio_handler.c ****         if (current_time - last_accepted_press_time > DEBOUNCE_DELAY_MS) {
 879              		.loc 1 159 12 view .LVU186
 880 001a 642B     		cmp	r3, #100
 881 001c F8D9     		bls	.L68
 160:Core/Src/gpio_handler/gpio_handler.c ****             if (g_is_logging_active) {
 882              		.loc 1 160 13 is_stmt 1 view .LVU187
 883 001e 0E4B     		ldr	r3, .L74+8
 884 0020 1A78     		ldrb	r2, [r3]	@ zero_extendqisi2
 885 0022 82F00102 		eor	r2, r2, #1
 160:Core/Src/gpio_handler/gpio_handler.c ****             if (g_is_logging_active) {
 886              		.loc 1 160 33 is_stmt 0 view .LVU188
 887 0026 1A70     		strb	r2, [r3]
 161:Core/Src/gpio_handler/gpio_handler.c ****                 WriteDigitalOut(&g_builtinLed, 1);
 888              		.loc 1 161 13 is_stmt 1 view .LVU189
 161:Core/Src/gpio_handler/gpio_handler.c ****                 WriteDigitalOut(&g_builtinLed, 1);
 889              		.loc 1 161 17 is_stmt 0 view .LVU190
 890 0028 1B78     		ldrb	r3, [r3]	@ zero_extendqisi2
 161:Core/Src/gpio_handler/gpio_handler.c ****                 WriteDigitalOut(&g_builtinLed, 1);
 891              		.loc 1 161 16 view .LVU191
 892 002a 4BB1     		cbz	r3, .L70
 162:Core/Src/gpio_handler/gpio_handler.c ****                 WriteUART_Blocking("=== Data Logging STARTED ===\r\n");
 893              		.loc 1 162 17 is_stmt 1 view .LVU192
 894 002c 0121     		movs	r1, #1
 895 002e 0B48     		ldr	r0, .L74+12
 896              	.LVL47:
 162:Core/Src/gpio_handler/gpio_handler.c ****                 WriteUART_Blocking("=== Data Logging STARTED ===\r\n");
 897              		.loc 1 162 17 is_stmt 0 view .LVU193
 898 0030 FFF7FEFF 		bl	WriteDigitalOut
 899              	.LVL48:
 163:Core/Src/gpio_handler/gpio_handler.c ****             } else {
 900              		.loc 1 163 17 is_stmt 1 view .LVU194
 901 0034 0A48     		ldr	r0, .L74+16
 902 0036 FFF7FEFF 		bl	WriteUART_Blocking
 903              	.LVL49:
 904              	.L71:
 168:Core/Src/gpio_handler/gpio_handler.c ****         }
 905              		.loc 1 168 13 view .LVU195
 168:Core/Src/gpio_handler/gpio_handler.c ****         }
 906              		.loc 1 168 38 is_stmt 0 view .LVU196
 907 003a 064B     		ldr	r3, .L74+4
 908 003c 1D60     		str	r5, [r3]
 909              		.loc 1 171 1 view .LVU197
 910 003e E7E7     		b	.L68
 911              	.LVL50:
 912              	.L70:
 165:Core/Src/gpio_handler/gpio_handler.c ****                 WriteUART_Blocking("=== Data Logging STOPPED ===\r\n");
 913              		.loc 1 165 17 is_stmt 1 view .LVU198
 914 0040 0021     		movs	r1, #0
 915 0042 0648     		ldr	r0, .L74+12
 916              	.LVL51:
 165:Core/Src/gpio_handler/gpio_handler.c ****                 WriteUART_Blocking("=== Data Logging STOPPED ===\r\n");
ARM GAS  /var/folders/t0/g2s8z9xd75s2k51g_zcxx3qc0000gn/T//cc3ykDyu.s 			page 21


 917              		.loc 1 165 17 is_stmt 0 view .LVU199
 918 0044 FFF7FEFF 		bl	WriteDigitalOut
 919              	.LVL52:
 166:Core/Src/gpio_handler/gpio_handler.c ****             }
 920              		.loc 1 166 17 is_stmt 1 view .LVU200
 921 0048 0648     		ldr	r0, .L74+20
 922 004a FFF7FEFF 		bl	WriteUART_Blocking
 923              	.LVL53:
 924 004e F4E7     		b	.L71
 925              	.L75:
 926              		.align	2
 927              	.L74:
 928 0050 00000000 		.word	g_builtinPushButton
 929 0054 00000000 		.word	last_accepted_press_time.0
 930 0058 00000000 		.word	g_is_logging_active
 931 005c 00000000 		.word	g_builtinLed
 932 0060 00000000 		.word	.LC2
 933 0064 20000000 		.word	.LC3
 934              		.cfi_endproc
 935              	.LFE147:
 937              		.section	.bss.last_accepted_press_time.0,"aw",%nobits
 938              		.align	2
 941              	last_accepted_press_time.0:
 942 0000 00000000 		.space	4
 943              		.global	g_is_logging_active
 944              		.section	.bss.g_is_logging_active,"aw",%nobits
 947              	g_is_logging_active:
 948 0000 00       		.space	1
 949              		.global	g_ledToggleTimer
 950              		.section	.bss.g_ledToggleTimer,"aw",%nobits
 951              		.align	2
 954              	g_ledToggleTimer:
 955 0000 00000000 		.space	4
 956              		.global	g_builtinPushButton
 957              		.section	.bss.g_builtinPushButton,"aw",%nobits
 958              		.align	2
 961              	g_builtinPushButton:
 962 0000 00000000 		.space	20
 962      00000000 
 962      00000000 
 962      00000000 
 962      00000000 
 963              		.global	g_builtinLed
 964              		.section	.bss.g_builtinLed,"aw",%nobits
 965              		.align	2
 968              	g_builtinLed:
 969 0000 00000000 		.space	12
 969      00000000 
 969      00000000 
 970              		.section	.rodata
 971              		.align	2
 972              		.set	.LANCHOR0,. + 0
 973              	.LC0:
 974 0000 00000240 		.word	1073872896
 975 0004 2000     		.short	32
 976 0006 0000     		.space	2
 977              	.LC1:
ARM GAS  /var/folders/t0/g2s8z9xd75s2k51g_zcxx3qc0000gn/T//cc3ykDyu.s 			page 22


 978 0008 00080240 		.word	1073874944
 979 000c 0020     		.short	8192
 980 000e 0000     		.space	2
 981              		.text
 982              	.Letext0:
 983              		.file 2 "/opt/arm-gnu-toolchain/arm-none-eabi/include/machine/_default_types.h"
 984              		.file 3 "/opt/arm-gnu-toolchain/arm-none-eabi/include/sys/_stdint.h"
 985              		.file 4 "Drivers/CMSIS/Device/ST/STM32F4xx/Include/stm32f411xe.h"
 986              		.file 5 "Drivers/STM32F4xx_HAL_Driver/Inc/stm32f4xx_hal_gpio.h"
 987              		.file 6 "Core/Src/library/aml_hal.h"
 988              		.file 7 "Core/Src/gpio_handler/gpio_handler.h"
 989              		.file 8 "Core/Src/uart_handler/uart_handler.h"
 990              		.file 9 "Drivers/STM32F4xx_HAL_Driver/Inc/stm32f4xx_hal.h"
 991              		.file 10 "Drivers/STM32F4xx_HAL_Driver/Inc/stm32f4xx_hal_cortex.h"
 992              		.file 11 "Core/Src/timer/timer.h"
ARM GAS  /var/folders/t0/g2s8z9xd75s2k51g_zcxx3qc0000gn/T//cc3ykDyu.s 			page 23

