ARM GAS  /var/folders/25/vg8ydb454_z3v37m53jqj5280000gn/T//ccsflArE.s 			page 1


   1              		.cpu cortex-m4
   2              		.arch armv7e-m
   3              		.fpu fpv4-sp-d16
   4              		.eabi_attribute 27, 1
   5              		.eabi_attribute 28, 1
   6              		.eabi_attribute 20, 1
   7              		.eabi_attribute 21, 1
   8              		.eabi_attribute 23, 3
   9              		.eabi_attribute 24, 1
  10              		.eabi_attribute 25, 1
  11              		.eabi_attribute 26, 1
  12              		.eabi_attribute 30, 1
  13              		.eabi_attribute 34, 1
  14              		.eabi_attribute 18, 4
  15              		.file	"gpio_handler.c"
  16              		.text
  17              	.Ltext0:
  18              		.cfi_sections	.debug_frame
  19              		.file 1 "Core/Src/gpio_handler/gpio_handler.c"
  20              		.section	.text.MX_GPIO_Init,"ax",%progbits
  21              		.align	1
  22              		.global	MX_GPIO_Init
  23              		.syntax unified
  24              		.thumb
  25              		.thumb_func
  27              	MX_GPIO_Init:
  28              	.LFB134:
   1:Core/Src/gpio_handler/gpio_handler.c **** #include "gpio_handler.h"
   2:Core/Src/gpio_handler/gpio_handler.c **** #include "timer.h" // For timer_handler used in ToggleLED
   3:Core/Src/gpio_handler/gpio_handler.c **** 
   4:Core/Src/gpio_handler/gpio_handler.c **** // Global Variables Definitions -----------------------------------
   5:Core/Src/gpio_handler/gpio_handler.c **** DigitalOut g_builtinLed;
   6:Core/Src/gpio_handler/gpio_handler.c **** DigitalIn g_builtinPushButton;
   7:Core/Src/gpio_handler/gpio_handler.c **** u32 g_ledToggleTimer = 0;
   8:Core/Src/gpio_handler/gpio_handler.c **** volatile bool g_is_logging_active = false; // Definition for the global flag
   9:Core/Src/gpio_handler/gpio_handler.c **** 
  10:Core/Src/gpio_handler/gpio_handler.c **** /**
  11:Core/Src/gpio_handler/gpio_handler.c ****   * @brief GPIO Initialisation Function
  12:Core/Src/gpio_handler/gpio_handler.c ****   */
  13:Core/Src/gpio_handler/gpio_handler.c **** void MX_GPIO_Init(void)
  14:Core/Src/gpio_handler/gpio_handler.c **** {
  29              		.loc 1 14 1 view -0
  30              		.cfi_startproc
  31              		@ args = 0, pretend = 0, frame = 40
  32              		@ frame_needed = 0, uses_anonymous_args = 0
  33 0000 30B5     		push	{r4, r5, lr}
  34              	.LCFI0:
  35              		.cfi_def_cfa_offset 12
  36              		.cfi_offset 4, -12
  37              		.cfi_offset 5, -8
  38              		.cfi_offset 14, -4
  39 0002 8BB0     		sub	sp, sp, #44
  40              	.LCFI1:
  41              		.cfi_def_cfa_offset 56
  15:Core/Src/gpio_handler/gpio_handler.c ****     GPIO_InitTypeDef GPIO_InitStruct = {0};
  42              		.loc 1 15 5 view .LVU1
  43              		.loc 1 15 22 is_stmt 0 view .LVU2
ARM GAS  /var/folders/25/vg8ydb454_z3v37m53jqj5280000gn/T//ccsflArE.s 			page 2


  44 0004 0024     		movs	r4, #0
  45 0006 0594     		str	r4, [sp, #20]
  46 0008 0694     		str	r4, [sp, #24]
  47 000a 0794     		str	r4, [sp, #28]
  48 000c 0894     		str	r4, [sp, #32]
  49 000e 0994     		str	r4, [sp, #36]
  16:Core/Src/gpio_handler/gpio_handler.c **** 
  17:Core/Src/gpio_handler/gpio_handler.c ****     /* GPIO Ports Clock Enable */
  18:Core/Src/gpio_handler/gpio_handler.c ****     __HAL_RCC_GPIOA_CLK_ENABLE();
  50              		.loc 1 18 5 is_stmt 1 view .LVU3
  51              	.LBB2:
  52              		.loc 1 18 5 view .LVU4
  53 0010 0194     		str	r4, [sp, #4]
  54              		.loc 1 18 5 view .LVU5
  55 0012 1F4B     		ldr	r3, .L3
  56 0014 1A6B     		ldr	r2, [r3, #48]
  57 0016 42F00102 		orr	r2, r2, #1
  58 001a 1A63     		str	r2, [r3, #48]
  59              		.loc 1 18 5 view .LVU6
  60 001c 1A6B     		ldr	r2, [r3, #48]
  61 001e 02F00102 		and	r2, r2, #1
  62 0022 0192     		str	r2, [sp, #4]
  63              		.loc 1 18 5 view .LVU7
  64 0024 019A     		ldr	r2, [sp, #4]
  65              	.LBE2:
  66              		.loc 1 18 5 view .LVU8
  19:Core/Src/gpio_handler/gpio_handler.c ****     __HAL_RCC_GPIOB_CLK_ENABLE();
  67              		.loc 1 19 5 view .LVU9
  68              	.LBB3:
  69              		.loc 1 19 5 view .LVU10
  70 0026 0294     		str	r4, [sp, #8]
  71              		.loc 1 19 5 view .LVU11
  72 0028 1A6B     		ldr	r2, [r3, #48]
  73 002a 42F00202 		orr	r2, r2, #2
  74 002e 1A63     		str	r2, [r3, #48]
  75              		.loc 1 19 5 view .LVU12
  76 0030 1A6B     		ldr	r2, [r3, #48]
  77 0032 02F00202 		and	r2, r2, #2
  78 0036 0292     		str	r2, [sp, #8]
  79              		.loc 1 19 5 view .LVU13
  80 0038 029A     		ldr	r2, [sp, #8]
  81              	.LBE3:
  82              		.loc 1 19 5 view .LVU14
  20:Core/Src/gpio_handler/gpio_handler.c ****     __HAL_RCC_GPIOC_CLK_ENABLE();
  83              		.loc 1 20 5 view .LVU15
  84              	.LBB4:
  85              		.loc 1 20 5 view .LVU16
  86 003a 0394     		str	r4, [sp, #12]
  87              		.loc 1 20 5 view .LVU17
  88 003c 1A6B     		ldr	r2, [r3, #48]
  89 003e 42F00402 		orr	r2, r2, #4
  90 0042 1A63     		str	r2, [r3, #48]
  91              		.loc 1 20 5 view .LVU18
  92 0044 1A6B     		ldr	r2, [r3, #48]
  93 0046 02F00402 		and	r2, r2, #4
  94 004a 0392     		str	r2, [sp, #12]
  95              		.loc 1 20 5 view .LVU19
ARM GAS  /var/folders/25/vg8ydb454_z3v37m53jqj5280000gn/T//ccsflArE.s 			page 3


  96 004c 039A     		ldr	r2, [sp, #12]
  97              	.LBE4:
  98              		.loc 1 20 5 view .LVU20
  21:Core/Src/gpio_handler/gpio_handler.c ****     __HAL_RCC_GPIOH_CLK_ENABLE();
  99              		.loc 1 21 5 view .LVU21
 100              	.LBB5:
 101              		.loc 1 21 5 view .LVU22
 102 004e 0494     		str	r4, [sp, #16]
 103              		.loc 1 21 5 view .LVU23
 104 0050 1A6B     		ldr	r2, [r3, #48]
 105 0052 42F08002 		orr	r2, r2, #128
 106 0056 1A63     		str	r2, [r3, #48]
 107              		.loc 1 21 5 view .LVU24
 108 0058 1B6B     		ldr	r3, [r3, #48]
 109 005a 03F08003 		and	r3, r3, #128
 110 005e 0493     		str	r3, [sp, #16]
 111              		.loc 1 21 5 view .LVU25
 112 0060 049B     		ldr	r3, [sp, #16]
 113              	.LBE5:
 114              		.loc 1 21 5 view .LVU26
  22:Core/Src/gpio_handler/gpio_handler.c **** 
  23:Core/Src/gpio_handler/gpio_handler.c ****     /* --- Configure PC13 (USER Button) as an interrupt on the rising edge --- */
  24:Core/Src/gpio_handler/gpio_handler.c ****     GPIO_InitStruct.Pin = GPIO_PIN_13;
 115              		.loc 1 24 5 view .LVU27
 116              		.loc 1 24 25 is_stmt 0 view .LVU28
 117 0062 4FF40053 		mov	r3, #8192
 118 0066 0593     		str	r3, [sp, #20]
  25:Core/Src/gpio_handler/gpio_handler.c ****     GPIO_InitStruct.Mode = GPIO_MODE_IT_RISING; // Trigger on rising edge (when button is pressed)
 119              		.loc 1 25 5 is_stmt 1 view .LVU29
 120              		.loc 1 25 26 is_stmt 0 view .LVU30
 121 0068 4FF48813 		mov	r3, #1114112
 122 006c 0693     		str	r3, [sp, #24]
  26:Core/Src/gpio_handler/gpio_handler.c ****     
  27:Core/Src/gpio_handler/gpio_handler.c ****     // **** THIS IS THE FIX ****
  28:Core/Src/gpio_handler/gpio_handler.c ****     // Enable the internal pull-down resistor. This ensures the pin is held LOW when
  29:Core/Src/gpio_handler/gpio_handler.c ****     // the button is not pressed, preventing it from floating and triggering false interrupts.
  30:Core/Src/gpio_handler/gpio_handler.c ****     GPIO_InitStruct.Pull = GPIO_PULLDOWN;
 123              		.loc 1 30 5 is_stmt 1 view .LVU31
 124              		.loc 1 30 26 is_stmt 0 view .LVU32
 125 006e 0225     		movs	r5, #2
 126 0070 0795     		str	r5, [sp, #28]
  31:Core/Src/gpio_handler/gpio_handler.c ****     HAL_GPIO_Init(GPIOC, &GPIO_InitStruct);
 127              		.loc 1 31 5 is_stmt 1 view .LVU33
 128 0072 05A9     		add	r1, sp, #20
 129 0074 0748     		ldr	r0, .L3+4
 130 0076 FFF7FEFF 		bl	HAL_GPIO_Init
 131              	.LVL0:
  32:Core/Src/gpio_handler/gpio_handler.c **** 
  33:Core/Src/gpio_handler/gpio_handler.c ****     /* EXTI interrupt init for Line 13 (which is part of 15_10) */
  34:Core/Src/gpio_handler/gpio_handler.c ****     HAL_NVIC_SetPriority(EXTI15_10_IRQn, 2, 0); // Using a lower priority (e.g., 2) is good practic
 132              		.loc 1 34 5 view .LVU34
 133 007a 2246     		mov	r2, r4
 134 007c 2946     		mov	r1, r5
 135 007e 2820     		movs	r0, #40
 136 0080 FFF7FEFF 		bl	HAL_NVIC_SetPriority
 137              	.LVL1:
  35:Core/Src/gpio_handler/gpio_handler.c ****     HAL_NVIC_EnableIRQ(EXTI15_10_IRQn);
ARM GAS  /var/folders/25/vg8ydb454_z3v37m53jqj5280000gn/T//ccsflArE.s 			page 4


 138              		.loc 1 35 5 view .LVU35
 139 0084 2820     		movs	r0, #40
 140 0086 FFF7FEFF 		bl	HAL_NVIC_EnableIRQ
 141              	.LVL2:
  36:Core/Src/gpio_handler/gpio_handler.c **** }
 142              		.loc 1 36 1 is_stmt 0 view .LVU36
 143 008a 0BB0     		add	sp, sp, #44
 144              	.LCFI2:
 145              		.cfi_def_cfa_offset 12
 146              		@ sp needed
 147 008c 30BD     		pop	{r4, r5, pc}
 148              	.L4:
 149 008e 00BF     		.align	2
 150              	.L3:
 151 0090 00380240 		.word	1073887232
 152 0094 00080240 		.word	1073874944
 153              		.cfi_endproc
 154              	.LFE134:
 156              		.section	.text.WriteDigitalOut,"ax",%progbits
 157              		.align	1
 158              		.global	WriteDigitalOut
 159              		.syntax unified
 160              		.thumb
 161              		.thumb_func
 163              	WriteDigitalOut:
 164              	.LVL3:
 165              	.LFB136:
  37:Core/Src/gpio_handler/gpio_handler.c **** 
  38:Core/Src/gpio_handler/gpio_handler.c **** // --- Digital Output Functions ---
  39:Core/Src/gpio_handler/gpio_handler.c **** 
  40:Core/Src/gpio_handler/gpio_handler.c **** DigitalOut AssignDigitalOut (Pin_t pin) {
  41:Core/Src/gpio_handler/gpio_handler.c ****     DigitalOut digital_out;
  42:Core/Src/gpio_handler/gpio_handler.c ****     digital_out.pin = pin;
  43:Core/Src/gpio_handler/gpio_handler.c ****     digital_out.state = GPIO_PIN_RESET;
  44:Core/Src/gpio_handler/gpio_handler.c **** 
  45:Core/Src/gpio_handler/gpio_handler.c ****     GPIO_InitTypeDef GPIO_InitStruct = {0};
  46:Core/Src/gpio_handler/gpio_handler.c ****     GPIO_InitStruct.Pin = digital_out.pin.pin;
  47:Core/Src/gpio_handler/gpio_handler.c ****     GPIO_InitStruct.Mode = GPIO_MODE_OUTPUT_PP;
  48:Core/Src/gpio_handler/gpio_handler.c ****     GPIO_InitStruct.Pull = GPIO_NOPULL;
  49:Core/Src/gpio_handler/gpio_handler.c ****     GPIO_InitStruct.Speed = GPIO_SPEED_FREQ_MEDIUM;
  50:Core/Src/gpio_handler/gpio_handler.c ****     HAL_GPIO_Init(digital_out.pin.port, &GPIO_InitStruct);
  51:Core/Src/gpio_handler/gpio_handler.c **** 
  52:Core/Src/gpio_handler/gpio_handler.c ****     WriteDigitalOut(&digital_out, 0); // Set initial state OFF
  53:Core/Src/gpio_handler/gpio_handler.c ****     return digital_out;
  54:Core/Src/gpio_handler/gpio_handler.c **** }
  55:Core/Src/gpio_handler/gpio_handler.c **** 
  56:Core/Src/gpio_handler/gpio_handler.c **** void WriteDigitalOut(DigitalOut *digital_out, u8 state) {
 166              		.loc 1 56 57 is_stmt 1 view -0
 167              		.cfi_startproc
 168              		@ args = 0, pretend = 0, frame = 0
 169              		@ frame_needed = 0, uses_anonymous_args = 0
  57:Core/Src/gpio_handler/gpio_handler.c ****     if (digital_out && digital_out->pin.port) {
 170              		.loc 1 57 5 view .LVU38
 171              		.loc 1 57 8 is_stmt 0 view .LVU39
 172 0000 48B1     		cbz	r0, .L8
  56:Core/Src/gpio_handler/gpio_handler.c ****     if (digital_out && digital_out->pin.port) {
 173              		.loc 1 56 57 view .LVU40
ARM GAS  /var/folders/25/vg8ydb454_z3v37m53jqj5280000gn/T//ccsflArE.s 			page 5


 174 0002 08B5     		push	{r3, lr}
 175              	.LCFI3:
 176              		.cfi_def_cfa_offset 8
 177              		.cfi_offset 3, -8
 178              		.cfi_offset 14, -4
 179 0004 0346     		mov	r3, r0
 180              		.loc 1 57 40 discriminator 1 view .LVU41
 181 0006 0068     		ldr	r0, [r0]
 182              	.LVL4:
 183              		.loc 1 57 21 discriminator 1 view .LVU42
 184 0008 20B1     		cbz	r0, .L5
  58:Core/Src/gpio_handler/gpio_handler.c ****         digital_out->state = state;
 185              		.loc 1 58 9 is_stmt 1 view .LVU43
 186              		.loc 1 58 28 is_stmt 0 view .LVU44
 187 000a 1972     		strb	r1, [r3, #8]
  59:Core/Src/gpio_handler/gpio_handler.c ****         HAL_GPIO_WritePin(digital_out->pin.port, digital_out->pin.pin, (GPIO_PinState)state);
 188              		.loc 1 59 9 is_stmt 1 view .LVU45
 189 000c 0A46     		mov	r2, r1
 190 000e 9988     		ldrh	r1, [r3, #4]
 191              	.LVL5:
 192              		.loc 1 59 9 is_stmt 0 view .LVU46
 193 0010 FFF7FEFF 		bl	HAL_GPIO_WritePin
 194              	.LVL6:
 195              	.L5:
  60:Core/Src/gpio_handler/gpio_handler.c ****     }
  61:Core/Src/gpio_handler/gpio_handler.c **** }
 196              		.loc 1 61 1 view .LVU47
 197 0014 08BD     		pop	{r3, pc}
 198              	.LVL7:
 199              	.L8:
 200              	.LCFI4:
 201              		.cfi_def_cfa_offset 0
 202              		.cfi_restore 3
 203              		.cfi_restore 14
 204              		.loc 1 61 1 view .LVU48
 205 0016 7047     		bx	lr
 206              		.cfi_endproc
 207              	.LFE136:
 209              		.section	.text.AssignDigitalOut,"ax",%progbits
 210              		.align	1
 211              		.global	AssignDigitalOut
 212              		.syntax unified
 213              		.thumb
 214              		.thumb_func
 216              	AssignDigitalOut:
 217              	.LVL8:
 218              	.LFB135:
  40:Core/Src/gpio_handler/gpio_handler.c ****     DigitalOut digital_out;
 219              		.loc 1 40 41 is_stmt 1 view -0
 220              		.cfi_startproc
 221              		@ args = 0, pretend = 0, frame = 40
 222              		@ frame_needed = 0, uses_anonymous_args = 0
  40:Core/Src/gpio_handler/gpio_handler.c ****     DigitalOut digital_out;
 223              		.loc 1 40 41 is_stmt 0 view .LVU50
 224 0000 70B5     		push	{r4, r5, r6, lr}
 225              	.LCFI5:
 226              		.cfi_def_cfa_offset 16
ARM GAS  /var/folders/25/vg8ydb454_z3v37m53jqj5280000gn/T//ccsflArE.s 			page 6


 227              		.cfi_offset 4, -16
 228              		.cfi_offset 5, -12
 229              		.cfi_offset 6, -8
 230              		.cfi_offset 14, -4
 231 0002 8AB0     		sub	sp, sp, #40
 232              	.LCFI6:
 233              		.cfi_def_cfa_offset 56
 234 0004 0546     		mov	r5, r0
 235 0006 6B46     		mov	r3, sp
 236 0008 83E80600 		stm	r3, {r1, r2}
  41:Core/Src/gpio_handler/gpio_handler.c ****     digital_out.pin = pin;
 237              		.loc 1 41 5 is_stmt 1 view .LVU51
  42:Core/Src/gpio_handler/gpio_handler.c ****     digital_out.state = GPIO_PIN_RESET;
 238              		.loc 1 42 5 view .LVU52
  42:Core/Src/gpio_handler/gpio_handler.c ****     digital_out.state = GPIO_PIN_RESET;
 239              		.loc 1 42 21 is_stmt 0 view .LVU53
 240 000c 07AE     		add	r6, sp, #28
 241 000e 93E80300 		ldm	r3, {r0, r1}
 242              	.LVL9:
  42:Core/Src/gpio_handler/gpio_handler.c ****     digital_out.state = GPIO_PIN_RESET;
 243              		.loc 1 42 21 view .LVU54
 244 0012 86E80500 		stm	r6, {r0, r2}
  43:Core/Src/gpio_handler/gpio_handler.c **** 
 245              		.loc 1 43 5 is_stmt 1 view .LVU55
  43:Core/Src/gpio_handler/gpio_handler.c **** 
 246              		.loc 1 43 23 is_stmt 0 view .LVU56
 247 0016 0024     		movs	r4, #0
 248 0018 8DF82440 		strb	r4, [sp, #36]
  45:Core/Src/gpio_handler/gpio_handler.c ****     GPIO_InitStruct.Pin = digital_out.pin.pin;
 249              		.loc 1 45 5 is_stmt 1 view .LVU57
  45:Core/Src/gpio_handler/gpio_handler.c ****     GPIO_InitStruct.Pin = digital_out.pin.pin;
 250              		.loc 1 45 22 is_stmt 0 view .LVU58
 251 001c 0294     		str	r4, [sp, #8]
 252 001e 0394     		str	r4, [sp, #12]
 253 0020 0494     		str	r4, [sp, #16]
 254 0022 0594     		str	r4, [sp, #20]
 255 0024 0694     		str	r4, [sp, #24]
  46:Core/Src/gpio_handler/gpio_handler.c ****     GPIO_InitStruct.Mode = GPIO_MODE_OUTPUT_PP;
 256              		.loc 1 46 5 is_stmt 1 view .LVU59
  46:Core/Src/gpio_handler/gpio_handler.c ****     GPIO_InitStruct.Mode = GPIO_MODE_OUTPUT_PP;
 257              		.loc 1 46 42 is_stmt 0 view .LVU60
 258 0026 BDF82030 		ldrh	r3, [sp, #32]
  46:Core/Src/gpio_handler/gpio_handler.c ****     GPIO_InitStruct.Mode = GPIO_MODE_OUTPUT_PP;
 259              		.loc 1 46 25 view .LVU61
 260 002a 0293     		str	r3, [sp, #8]
  47:Core/Src/gpio_handler/gpio_handler.c ****     GPIO_InitStruct.Pull = GPIO_NOPULL;
 261              		.loc 1 47 5 is_stmt 1 view .LVU62
  47:Core/Src/gpio_handler/gpio_handler.c ****     GPIO_InitStruct.Pull = GPIO_NOPULL;
 262              		.loc 1 47 26 is_stmt 0 view .LVU63
 263 002c 0123     		movs	r3, #1
 264 002e 0393     		str	r3, [sp, #12]
  48:Core/Src/gpio_handler/gpio_handler.c ****     GPIO_InitStruct.Speed = GPIO_SPEED_FREQ_MEDIUM;
 265              		.loc 1 48 5 is_stmt 1 view .LVU64
  49:Core/Src/gpio_handler/gpio_handler.c ****     HAL_GPIO_Init(digital_out.pin.port, &GPIO_InitStruct);
 266              		.loc 1 49 5 view .LVU65
  49:Core/Src/gpio_handler/gpio_handler.c ****     HAL_GPIO_Init(digital_out.pin.port, &GPIO_InitStruct);
 267              		.loc 1 49 27 is_stmt 0 view .LVU66
ARM GAS  /var/folders/25/vg8ydb454_z3v37m53jqj5280000gn/T//ccsflArE.s 			page 7


 268 0030 0593     		str	r3, [sp, #20]
  50:Core/Src/gpio_handler/gpio_handler.c **** 
 269              		.loc 1 50 5 is_stmt 1 view .LVU67
 270 0032 02A9     		add	r1, sp, #8
 271 0034 FFF7FEFF 		bl	HAL_GPIO_Init
 272              	.LVL10:
  52:Core/Src/gpio_handler/gpio_handler.c ****     return digital_out;
 273              		.loc 1 52 5 view .LVU68
 274 0038 2146     		mov	r1, r4
 275 003a 3046     		mov	r0, r6
 276 003c FFF7FEFF 		bl	WriteDigitalOut
 277              	.LVL11:
  53:Core/Src/gpio_handler/gpio_handler.c **** }
 278              		.loc 1 53 5 view .LVU69
  53:Core/Src/gpio_handler/gpio_handler.c **** }
 279              		.loc 1 53 12 is_stmt 0 view .LVU70
 280 0040 96E80700 		ldm	r6, {r0, r1, r2}
 281 0044 85E80700 		stm	r5, {r0, r1, r2}
  54:Core/Src/gpio_handler/gpio_handler.c **** 
 282              		.loc 1 54 1 view .LVU71
 283 0048 2846     		mov	r0, r5
 284 004a 0AB0     		add	sp, sp, #40
 285              	.LCFI7:
 286              		.cfi_def_cfa_offset 16
 287              		@ sp needed
 288 004c 70BD     		pop	{r4, r5, r6, pc}
  54:Core/Src/gpio_handler/gpio_handler.c **** 
 289              		.loc 1 54 1 view .LVU72
 290              		.cfi_endproc
 291              	.LFE135:
 293              		.section	.text.ToggleDigitalOut,"ax",%progbits
 294              		.align	1
 295              		.global	ToggleDigitalOut
 296              		.syntax unified
 297              		.thumb
 298              		.thumb_func
 300              	ToggleDigitalOut:
 301              	.LVL12:
 302              	.LFB137:
  62:Core/Src/gpio_handler/gpio_handler.c **** 
  63:Core/Src/gpio_handler/gpio_handler.c **** void ToggleDigitalOut(DigitalOut *digital_out) {
 303              		.loc 1 63 48 is_stmt 1 view -0
 304              		.cfi_startproc
 305              		@ args = 0, pretend = 0, frame = 0
 306              		@ frame_needed = 0, uses_anonymous_args = 0
  64:Core/Src/gpio_handler/gpio_handler.c ****     if (digital_out && digital_out->pin.port) {
 307              		.loc 1 64 5 view .LVU74
 308              		.loc 1 64 8 is_stmt 0 view .LVU75
 309 0000 60B1     		cbz	r0, .L16
  63:Core/Src/gpio_handler/gpio_handler.c ****     if (digital_out && digital_out->pin.port) {
 310              		.loc 1 63 48 view .LVU76
 311 0002 08B5     		push	{r3, lr}
 312              	.LCFI8:
 313              		.cfi_def_cfa_offset 8
 314              		.cfi_offset 3, -8
 315              		.cfi_offset 14, -4
 316 0004 0346     		mov	r3, r0
ARM GAS  /var/folders/25/vg8ydb454_z3v37m53jqj5280000gn/T//ccsflArE.s 			page 8


 317              		.loc 1 64 40 discriminator 1 view .LVU77
 318 0006 0068     		ldr	r0, [r0]
 319              	.LVL13:
 320              		.loc 1 64 21 discriminator 1 view .LVU78
 321 0008 38B1     		cbz	r0, .L13
  65:Core/Src/gpio_handler/gpio_handler.c ****         digital_out->state = !digital_out->state;
 322              		.loc 1 65 9 is_stmt 1 view .LVU79
 323              		.loc 1 65 42 is_stmt 0 view .LVU80
 324 000a 1A7A     		ldrb	r2, [r3, #8]	@ zero_extendqisi2
 325              		.loc 1 65 30 view .LVU81
 326 000c B2FA82F2 		clz	r2, r2
 327 0010 5209     		lsrs	r2, r2, #5
 328              		.loc 1 65 28 view .LVU82
 329 0012 1A72     		strb	r2, [r3, #8]
  66:Core/Src/gpio_handler/gpio_handler.c ****         HAL_GPIO_TogglePin(digital_out->pin.port, digital_out->pin.pin);
 330              		.loc 1 66 9 is_stmt 1 view .LVU83
 331 0014 9988     		ldrh	r1, [r3, #4]
 332 0016 FFF7FEFF 		bl	HAL_GPIO_TogglePin
 333              	.LVL14:
 334              	.L13:
  67:Core/Src/gpio_handler/gpio_handler.c ****     }
  68:Core/Src/gpio_handler/gpio_handler.c **** }
 335              		.loc 1 68 1 is_stmt 0 view .LVU84
 336 001a 08BD     		pop	{r3, pc}
 337              	.LVL15:
 338              	.L16:
 339              	.LCFI9:
 340              		.cfi_def_cfa_offset 0
 341              		.cfi_restore 3
 342              		.cfi_restore 14
 343              		.loc 1 68 1 view .LVU85
 344 001c 7047     		bx	lr
 345              		.cfi_endproc
 346              	.LFE137:
 348              		.section	.text.BuiltinLED_Init,"ax",%progbits
 349              		.align	1
 350              		.global	BuiltinLED_Init
 351              		.syntax unified
 352              		.thumb
 353              		.thumb_func
 355              	BuiltinLED_Init:
 356              	.LFB138:
  69:Core/Src/gpio_handler/gpio_handler.c **** 
  70:Core/Src/gpio_handler/gpio_handler.c **** void BuiltinLED_Init(void) {
 357              		.loc 1 70 28 is_stmt 1 view -0
 358              		.cfi_startproc
 359              		@ args = 0, pretend = 0, frame = 24
 360              		@ frame_needed = 0, uses_anonymous_args = 0
 361 0000 30B5     		push	{r4, r5, lr}
 362              	.LCFI10:
 363              		.cfi_def_cfa_offset 12
 364              		.cfi_offset 4, -12
 365              		.cfi_offset 5, -8
 366              		.cfi_offset 14, -4
 367 0002 87B0     		sub	sp, sp, #28
 368              	.LCFI11:
 369              		.cfi_def_cfa_offset 40
ARM GAS  /var/folders/25/vg8ydb454_z3v37m53jqj5280000gn/T//ccsflArE.s 			page 9


  71:Core/Src/gpio_handler/gpio_handler.c ****     // Note: D13 is PA5 on the Nucleo-F411RE
  72:Core/Src/gpio_handler/gpio_handler.c ****     g_builtinLed = AssignDigitalOut((Pin_t){GPIOA, GPIO_PIN_5});
 370              		.loc 1 72 5 view .LVU87
 371              		.loc 1 72 44 is_stmt 0 view .LVU88
 372 0004 094A     		ldr	r2, .L21
 373 0006 04AB     		add	r3, sp, #16
 374 0008 92E80300 		ldm	r2, {r0, r1}
 375 000c 83E80300 		stm	r3, {r0, r1}
 376              		.loc 1 72 20 view .LVU89
 377 0010 074D     		ldr	r5, .L21+4
 378 0012 6C46     		mov	r4, sp
 379 0014 93E80600 		ldm	r3, {r1, r2}
 380 0018 2046     		mov	r0, r4
 381 001a FFF7FEFF 		bl	AssignDigitalOut
 382              	.LVL16:
 383 001e 94E80700 		ldm	r4, {r0, r1, r2}
 384 0022 85E80700 		stm	r5, {r0, r1, r2}
  73:Core/Src/gpio_handler/gpio_handler.c **** }
 385              		.loc 1 73 1 view .LVU90
 386 0026 07B0     		add	sp, sp, #28
 387              	.LCFI12:
 388              		.cfi_def_cfa_offset 12
 389              		@ sp needed
 390 0028 30BD     		pop	{r4, r5, pc}
 391              	.L22:
 392 002a 00BF     		.align	2
 393              	.L21:
 394 002c 00000000 		.word	.LANCHOR0
 395 0030 00000000 		.word	g_builtinLed
 396              		.cfi_endproc
 397              	.LFE138:
 399              		.section	.text.indicate_setup_with_blinks,"ax",%progbits
 400              		.align	1
 401              		.global	indicate_setup_with_blinks
 402              		.syntax unified
 403              		.thumb
 404              		.thumb_func
 406              	indicate_setup_with_blinks:
 407              	.LVL17:
 408              	.LFB139:
  74:Core/Src/gpio_handler/gpio_handler.c **** 
  75:Core/Src/gpio_handler/gpio_handler.c **** void indicate_setup_with_blinks(int num_blinks, u32 delay_ms) {
 409              		.loc 1 75 63 is_stmt 1 view -0
 410              		.cfi_startproc
 411              		@ args = 0, pretend = 0, frame = 0
 412              		@ frame_needed = 0, uses_anonymous_args = 0
 413              		.loc 1 75 63 is_stmt 0 view .LVU92
 414 0000 70B5     		push	{r4, r5, r6, lr}
 415              	.LCFI13:
 416              		.cfi_def_cfa_offset 16
 417              		.cfi_offset 4, -16
 418              		.cfi_offset 5, -12
 419              		.cfi_offset 6, -8
 420              		.cfi_offset 14, -4
 421 0002 0546     		mov	r5, r0
 422 0004 0E46     		mov	r6, r1
  76:Core/Src/gpio_handler/gpio_handler.c ****     for (int i = 0; i < num_blinks * 2; i++) {
ARM GAS  /var/folders/25/vg8ydb454_z3v37m53jqj5280000gn/T//ccsflArE.s 			page 10


 423              		.loc 1 76 5 is_stmt 1 view .LVU93
 424              	.LBB6:
 425              		.loc 1 76 10 view .LVU94
 426              	.LVL18:
 427              		.loc 1 76 14 is_stmt 0 view .LVU95
 428 0006 0024     		movs	r4, #0
 429              		.loc 1 76 5 view .LVU96
 430 0008 06E0     		b	.L24
 431              	.LVL19:
 432              	.L25:
  77:Core/Src/gpio_handler/gpio_handler.c ****         ToggleDigitalOut(&g_builtinLed);
 433              		.loc 1 77 9 is_stmt 1 view .LVU97
 434 000a 0748     		ldr	r0, .L27
 435 000c FFF7FEFF 		bl	ToggleDigitalOut
 436              	.LVL20:
  78:Core/Src/gpio_handler/gpio_handler.c ****         HAL_Delay(delay_ms);
 437              		.loc 1 78 9 view .LVU98
 438 0010 3046     		mov	r0, r6
 439 0012 FFF7FEFF 		bl	HAL_Delay
 440              	.LVL21:
  76:Core/Src/gpio_handler/gpio_handler.c ****     for (int i = 0; i < num_blinks * 2; i++) {
 441              		.loc 1 76 42 discriminator 3 view .LVU99
 442 0016 0134     		adds	r4, r4, #1
 443              	.LVL22:
 444              	.L24:
  76:Core/Src/gpio_handler/gpio_handler.c ****     for (int i = 0; i < num_blinks * 2; i++) {
 445              		.loc 1 76 23 discriminator 1 view .LVU100
 446 0018 B4EB450F 		cmp	r4, r5, lsl #1
 447 001c F5DB     		blt	.L25
 448              	.LBE6:
  79:Core/Src/gpio_handler/gpio_handler.c ****     }
  80:Core/Src/gpio_handler/gpio_handler.c ****     WriteDigitalOut(&g_builtinLed, 0);
 449              		.loc 1 80 5 view .LVU101
 450 001e 0021     		movs	r1, #0
 451 0020 0148     		ldr	r0, .L27
 452 0022 FFF7FEFF 		bl	WriteDigitalOut
 453              	.LVL23:
  81:Core/Src/gpio_handler/gpio_handler.c **** }
 454              		.loc 1 81 1 is_stmt 0 view .LVU102
 455 0026 70BD     		pop	{r4, r5, r6, pc}
 456              	.LVL24:
 457              	.L28:
 458              		.loc 1 81 1 view .LVU103
 459              		.align	2
 460              	.L27:
 461 0028 00000000 		.word	g_builtinLed
 462              		.cfi_endproc
 463              	.LFE139:
 465              		.section	.text.ToggleLED,"ax",%progbits
 466              		.align	1
 467              		.global	ToggleLED
 468              		.syntax unified
 469              		.thumb
 470              		.thumb_func
 472              	ToggleLED:
 473              	.LVL25:
 474              	.LFB140:
ARM GAS  /var/folders/25/vg8ydb454_z3v37m53jqj5280000gn/T//ccsflArE.s 			page 11


  82:Core/Src/gpio_handler/gpio_handler.c **** 
  83:Core/Src/gpio_handler/gpio_handler.c **** void ToggleLED(DigitalOut *led, u32 interval, u32 *last_tick_timer) {
 475              		.loc 1 83 69 is_stmt 1 view -0
 476              		.cfi_startproc
 477              		@ args = 0, pretend = 0, frame = 0
 478              		@ frame_needed = 0, uses_anonymous_args = 0
 479              		.loc 1 83 69 is_stmt 0 view .LVU105
 480 0000 10B5     		push	{r4, lr}
 481              	.LCFI14:
 482              		.cfi_def_cfa_offset 8
 483              		.cfi_offset 4, -8
 484              		.cfi_offset 14, -4
 485 0002 0446     		mov	r4, r0
 486 0004 0846     		mov	r0, r1
 487              	.LVL26:
  84:Core/Src/gpio_handler/gpio_handler.c ****     if (timer_handler(interval, last_tick_timer)) {
 488              		.loc 1 84 5 is_stmt 1 view .LVU106
 489              		.loc 1 84 9 is_stmt 0 view .LVU107
 490 0006 1146     		mov	r1, r2
 491              	.LVL27:
 492              		.loc 1 84 9 view .LVU108
 493 0008 FFF7FEFF 		bl	timer_handler
 494              	.LVL28:
 495              		.loc 1 84 8 discriminator 1 view .LVU109
 496 000c 00B9     		cbnz	r0, .L32
 497              	.L29:
  85:Core/Src/gpio_handler/gpio_handler.c ****         ToggleDigitalOut(led);
  86:Core/Src/gpio_handler/gpio_handler.c ****     }
  87:Core/Src/gpio_handler/gpio_handler.c **** }
 498              		.loc 1 87 1 view .LVU110
 499 000e 10BD     		pop	{r4, pc}
 500              	.LVL29:
 501              	.L32:
  85:Core/Src/gpio_handler/gpio_handler.c ****         ToggleDigitalOut(led);
 502              		.loc 1 85 9 is_stmt 1 view .LVU111
 503 0010 2046     		mov	r0, r4
 504 0012 FFF7FEFF 		bl	ToggleDigitalOut
 505              	.LVL30:
 506              		.loc 1 87 1 is_stmt 0 view .LVU112
 507 0016 FAE7     		b	.L29
 508              		.cfi_endproc
 509              	.LFE140:
 511              		.section	.text.AssignDigitalIn_IT,"ax",%progbits
 512              		.align	1
 513              		.global	AssignDigitalIn_IT
 514              		.syntax unified
 515              		.thumb
 516              		.thumb_func
 518              	AssignDigitalIn_IT:
 519              	.LFB141:
  88:Core/Src/gpio_handler/gpio_handler.c **** 
  89:Core/Src/gpio_handler/gpio_handler.c **** // --- Digital Input Functions ---
  90:Core/Src/gpio_handler/gpio_handler.c **** 
  91:Core/Src/gpio_handler/gpio_handler.c **** /**
  92:Core/Src/gpio_handler/gpio_handler.c ****  * @brief  Configures a GPIO pin as an interrupt and enables its corresponding NVIC line.
  93:Core/Src/gpio_handler/gpio_handler.c ****  * @note   This function is intended for dynamic configuration. Static hardware like the
  94:Core/Src/gpio_handler/gpio_handler.c ****  * on-board button is best configured directly in MX_GPIO_Init().
ARM GAS  /var/folders/25/vg8ydb454_z3v37m53jqj5280000gn/T//ccsflArE.s 			page 12


  95:Core/Src/gpio_handler/gpio_handler.c ****  */
  96:Core/Src/gpio_handler/gpio_handler.c **** void AssignDigitalIn_IT(Pin_t pin) {
 520              		.loc 1 96 36 is_stmt 1 view -0
 521              		.cfi_startproc
 522              		@ args = 0, pretend = 0, frame = 32
 523              		@ frame_needed = 0, uses_anonymous_args = 0
 524 0000 10B5     		push	{r4, lr}
 525              	.LCFI15:
 526              		.cfi_def_cfa_offset 8
 527              		.cfi_offset 4, -8
 528              		.cfi_offset 14, -4
 529 0002 88B0     		sub	sp, sp, #32
 530              	.LCFI16:
 531              		.cfi_def_cfa_offset 40
 532 0004 6B46     		mov	r3, sp
 533 0006 83E80300 		stm	r3, {r0, r1}
  97:Core/Src/gpio_handler/gpio_handler.c ****     GPIO_InitTypeDef GPIO_InitStruct = {0};
 534              		.loc 1 97 5 view .LVU114
 535              		.loc 1 97 22 is_stmt 0 view .LVU115
 536 000a 0023     		movs	r3, #0
 537 000c 0393     		str	r3, [sp, #12]
 538 000e 0493     		str	r3, [sp, #16]
 539 0010 0593     		str	r3, [sp, #20]
 540 0012 0693     		str	r3, [sp, #24]
 541 0014 0793     		str	r3, [sp, #28]
  98:Core/Src/gpio_handler/gpio_handler.c ****     IRQn_Type EXTI_IRQn;
 542              		.loc 1 98 5 is_stmt 1 view .LVU116
  99:Core/Src/gpio_handler/gpio_handler.c **** 
 100:Core/Src/gpio_handler/gpio_handler.c ****     GPIO_InitStruct.Pin = pin.pin;
 543              		.loc 1 100 5 view .LVU117
 544              		.loc 1 100 30 is_stmt 0 view .LVU118
 545 0016 BDF80440 		ldrh	r4, [sp, #4]
 546              		.loc 1 100 25 view .LVU119
 547 001a 0394     		str	r4, [sp, #12]
 101:Core/Src/gpio_handler/gpio_handler.c ****     GPIO_InitStruct.Mode = GPIO_MODE_IT_RISING;
 548              		.loc 1 101 5 is_stmt 1 view .LVU120
 549              		.loc 1 101 26 is_stmt 0 view .LVU121
 550 001c 4FF48813 		mov	r3, #1114112
 551 0020 0493     		str	r3, [sp, #16]
 102:Core/Src/gpio_handler/gpio_handler.c ****     GPIO_InitStruct.Pull = GPIO_PULLDOWN; // Set to pull-down for a button connected to 3.3V
 552              		.loc 1 102 5 is_stmt 1 view .LVU122
 553              		.loc 1 102 26 is_stmt 0 view .LVU123
 554 0022 0223     		movs	r3, #2
 555 0024 0593     		str	r3, [sp, #20]
 103:Core/Src/gpio_handler/gpio_handler.c ****     HAL_GPIO_Init(pin.port, &GPIO_InitStruct);
 556              		.loc 1 103 5 is_stmt 1 view .LVU124
 557 0026 03A9     		add	r1, sp, #12
 558 0028 FFF7FEFF 		bl	HAL_GPIO_Init
 559              	.LVL31:
 104:Core/Src/gpio_handler/gpio_handler.c **** 
 105:Core/Src/gpio_handler/gpio_handler.c ****     // Determine the correct EXTI IRQn based on the pin number
 106:Core/Src/gpio_handler/gpio_handler.c ****     switch (pin.pin) {
 560              		.loc 1 106 5 view .LVU125
 561 002c 202C     		cmp	r4, #32
 562 002e 19D8     		bhi	.L34
 563 0030 23B2     		sxth	r3, r4
 564 0032 002B     		cmp	r3, #0
ARM GAS  /var/folders/25/vg8ydb454_z3v37m53jqj5280000gn/T//ccsflArE.s 			page 13


 565 0034 46D0     		beq	.L33
 566 0036 013C     		subs	r4, r4, #1
 567 0038 1F2C     		cmp	r4, #31
 568 003a 43D8     		bhi	.L33
 569 003c DFE804F0 		tbb	[pc, r4]
 570              	.L37:
 571 0040 10       		.byte	(.L42-.L37)/2
 572 0041 4A       		.byte	(.L47-.L37)/2
 573 0042 42       		.byte	(.L33-.L37)/2
 574 0043 39       		.byte	(.L40-.L37)/2
 575 0044 42       		.byte	(.L33-.L37)/2
 576 0045 42       		.byte	(.L33-.L37)/2
 577 0046 42       		.byte	(.L33-.L37)/2
 578 0047 44       		.byte	(.L39-.L37)/2
 579 0048 42       		.byte	(.L33-.L37)/2
 580 0049 42       		.byte	(.L33-.L37)/2
 581 004a 42       		.byte	(.L33-.L37)/2
 582 004b 42       		.byte	(.L33-.L37)/2
 583 004c 42       		.byte	(.L33-.L37)/2
 584 004d 42       		.byte	(.L33-.L37)/2
 585 004e 42       		.byte	(.L33-.L37)/2
 586 004f 46       		.byte	(.L38-.L37)/2
 587 0050 42       		.byte	(.L33-.L37)/2
 588 0051 42       		.byte	(.L33-.L37)/2
 589 0052 42       		.byte	(.L33-.L37)/2
 590 0053 42       		.byte	(.L33-.L37)/2
 591 0054 42       		.byte	(.L33-.L37)/2
 592 0055 42       		.byte	(.L33-.L37)/2
 593 0056 42       		.byte	(.L33-.L37)/2
 594 0057 42       		.byte	(.L33-.L37)/2
 595 0058 42       		.byte	(.L33-.L37)/2
 596 0059 42       		.byte	(.L33-.L37)/2
 597 005a 42       		.byte	(.L33-.L37)/2
 598 005b 42       		.byte	(.L33-.L37)/2
 599 005c 42       		.byte	(.L33-.L37)/2
 600 005d 42       		.byte	(.L33-.L37)/2
 601 005e 42       		.byte	(.L33-.L37)/2
 602 005f 48       		.byte	(.L36-.L37)/2
 603              		.p2align 1
 604              	.L42:
 605 0060 0624     		movs	r4, #6
 606 0062 27E0     		b	.L41
 607              	.L34:
 608 0064 B4F5806F 		cmp	r4, #1024
 609 0068 36D0     		beq	.L48
 610 006a 0BD9     		bls	.L60
 611 006c B4F5005F 		cmp	r4, #8192
 612 0070 38D0     		beq	.L53
 613 0072 16D8     		bhi	.L45
 614 0074 B4F5006F 		cmp	r4, #2048
 615 0078 36D0     		beq	.L54
 616 007a B4F5805F 		cmp	r4, #4096
 617 007e 21D1     		bne	.L33
 107:Core/Src/gpio_handler/gpio_handler.c ****         case GPIO_PIN_0:  EXTI_IRQn = EXTI0_IRQn; break;
 108:Core/Src/gpio_handler/gpio_handler.c ****         case GPIO_PIN_1:  EXTI_IRQn = EXTI1_IRQn; break;
 109:Core/Src/gpio_handler/gpio_handler.c ****         case GPIO_PIN_2:  EXTI_IRQn = EXTI2_IRQn; break;
 110:Core/Src/gpio_handler/gpio_handler.c ****         case GPIO_PIN_3:  EXTI_IRQn = EXTI3_IRQn; break;
ARM GAS  /var/folders/25/vg8ydb454_z3v37m53jqj5280000gn/T//ccsflArE.s 			page 14


 111:Core/Src/gpio_handler/gpio_handler.c ****         case GPIO_PIN_4:  EXTI_IRQn = EXTI4_IRQn; break;
 112:Core/Src/gpio_handler/gpio_handler.c ****         case GPIO_PIN_5:  case GPIO_PIN_6:  case GPIO_PIN_7:  case GPIO_PIN_8:  case GPIO_PIN_9:
 113:Core/Src/gpio_handler/gpio_handler.c ****             EXTI_IRQn = EXTI9_5_IRQn; break;
 114:Core/Src/gpio_handler/gpio_handler.c ****         case GPIO_PIN_10: case GPIO_PIN_11: case GPIO_PIN_12: case GPIO_PIN_13: case GPIO_PIN_14: c
 115:Core/Src/gpio_handler/gpio_handler.c ****             EXTI_IRQn = EXTI15_10_IRQn; break;
 618              		.loc 1 115 23 is_stmt 0 view .LVU126
 619 0080 2824     		movs	r4, #40
 620 0082 17E0     		b	.L41
 621              	.L60:
 106:Core/Src/gpio_handler/gpio_handler.c ****         case GPIO_PIN_0:  EXTI_IRQn = EXTI0_IRQn; break;
 622              		.loc 1 106 5 view .LVU127
 623 0084 B4F5807F 		cmp	r4, #256
 624 0088 28D0     		beq	.L49
 625 008a 05D8     		bhi	.L44
 626 008c 402C     		cmp	r4, #64
 627 008e 27D0     		beq	.L50
 628 0090 802C     		cmp	r4, #128
 629 0092 17D1     		bne	.L33
 113:Core/Src/gpio_handler/gpio_handler.c ****         case GPIO_PIN_10: case GPIO_PIN_11: case GPIO_PIN_12: case GPIO_PIN_13: case GPIO_PIN_14: c
 630              		.loc 1 113 23 view .LVU128
 631 0094 1724     		movs	r4, #23
 632 0096 0DE0     		b	.L41
 633              	.L44:
 106:Core/Src/gpio_handler/gpio_handler.c ****         case GPIO_PIN_0:  EXTI_IRQn = EXTI0_IRQn; break;
 634              		.loc 1 106 5 view .LVU129
 635 0098 B4F5007F 		cmp	r4, #512
 636 009c 12D1     		bne	.L33
 113:Core/Src/gpio_handler/gpio_handler.c ****         case GPIO_PIN_10: case GPIO_PIN_11: case GPIO_PIN_12: case GPIO_PIN_13: case GPIO_PIN_14: c
 637              		.loc 1 113 23 view .LVU130
 638 009e 1724     		movs	r4, #23
 639 00a0 08E0     		b	.L41
 640              	.L45:
 106:Core/Src/gpio_handler/gpio_handler.c ****         case GPIO_PIN_0:  EXTI_IRQn = EXTI0_IRQn; break;
 641              		.loc 1 106 5 view .LVU131
 642 00a2 B4F5804F 		cmp	r4, #16384
 643 00a6 21D0     		beq	.L56
 644 00a8 B4F5004F 		cmp	r4, #32768
 645 00ac 0AD1     		bne	.L33
 646              		.loc 1 115 23 view .LVU132
 647 00ae 2824     		movs	r4, #40
 648 00b0 00E0     		b	.L41
 649              	.L40:
 109:Core/Src/gpio_handler/gpio_handler.c ****         case GPIO_PIN_3:  EXTI_IRQn = EXTI3_IRQn; break;
 650              		.loc 1 109 27 is_stmt 1 view .LVU133
 651              	.LVL32:
 109:Core/Src/gpio_handler/gpio_handler.c ****         case GPIO_PIN_3:  EXTI_IRQn = EXTI3_IRQn; break;
 652              		.loc 1 109 51 view .LVU134
 109:Core/Src/gpio_handler/gpio_handler.c ****         case GPIO_PIN_3:  EXTI_IRQn = EXTI3_IRQn; break;
 653              		.loc 1 109 37 is_stmt 0 view .LVU135
 654 00b2 0824     		movs	r4, #8
 655              	.LVL33:
 656              	.L41:
 116:Core/Src/gpio_handler/gpio_handler.c ****         default: return;
 117:Core/Src/gpio_handler/gpio_handler.c ****     }
 118:Core/Src/gpio_handler/gpio_handler.c **** 
 119:Core/Src/gpio_handler/gpio_handler.c ****     HAL_NVIC_SetPriority(EXTI_IRQn, 2, 0);
 657              		.loc 1 119 5 is_stmt 1 view .LVU136
ARM GAS  /var/folders/25/vg8ydb454_z3v37m53jqj5280000gn/T//ccsflArE.s 			page 15


 658 00b4 0022     		movs	r2, #0
 659 00b6 0221     		movs	r1, #2
 660 00b8 2046     		mov	r0, r4
 661 00ba FFF7FEFF 		bl	HAL_NVIC_SetPriority
 662              	.LVL34:
 120:Core/Src/gpio_handler/gpio_handler.c ****     HAL_NVIC_EnableIRQ(EXTI_IRQn);
 663              		.loc 1 120 5 view .LVU137
 664 00be 2046     		mov	r0, r4
 665 00c0 FFF7FEFF 		bl	HAL_NVIC_EnableIRQ
 666              	.LVL35:
 667              	.L33:
 121:Core/Src/gpio_handler/gpio_handler.c **** }
 668              		.loc 1 121 1 is_stmt 0 view .LVU138
 669 00c4 08B0     		add	sp, sp, #32
 670              	.LCFI17:
 671              		.cfi_remember_state
 672              		.cfi_def_cfa_offset 8
 673              		@ sp needed
 674 00c6 10BD     		pop	{r4, pc}
 675              	.L39:
 676              	.LCFI18:
 677              		.cfi_restore_state
 110:Core/Src/gpio_handler/gpio_handler.c ****         case GPIO_PIN_4:  EXTI_IRQn = EXTI4_IRQn; break;
 678              		.loc 1 110 27 is_stmt 1 view .LVU139
 679              	.LVL36:
 110:Core/Src/gpio_handler/gpio_handler.c ****         case GPIO_PIN_4:  EXTI_IRQn = EXTI4_IRQn; break;
 680              		.loc 1 110 51 view .LVU140
 110:Core/Src/gpio_handler/gpio_handler.c ****         case GPIO_PIN_4:  EXTI_IRQn = EXTI4_IRQn; break;
 681              		.loc 1 110 37 is_stmt 0 view .LVU141
 682 00c8 0924     		movs	r4, #9
 110:Core/Src/gpio_handler/gpio_handler.c ****         case GPIO_PIN_4:  EXTI_IRQn = EXTI4_IRQn; break;
 683              		.loc 1 110 51 view .LVU142
 684 00ca F3E7     		b	.L41
 685              	.LVL37:
 686              	.L38:
 111:Core/Src/gpio_handler/gpio_handler.c ****         case GPIO_PIN_5:  case GPIO_PIN_6:  case GPIO_PIN_7:  case GPIO_PIN_8:  case GPIO_PIN_9:
 687              		.loc 1 111 27 is_stmt 1 view .LVU143
 111:Core/Src/gpio_handler/gpio_handler.c ****         case GPIO_PIN_5:  case GPIO_PIN_6:  case GPIO_PIN_7:  case GPIO_PIN_8:  case GPIO_PIN_9:
 688              		.loc 1 111 51 view .LVU144
 111:Core/Src/gpio_handler/gpio_handler.c ****         case GPIO_PIN_5:  case GPIO_PIN_6:  case GPIO_PIN_7:  case GPIO_PIN_8:  case GPIO_PIN_9:
 689              		.loc 1 111 37 is_stmt 0 view .LVU145
 690 00cc 0A24     		movs	r4, #10
 111:Core/Src/gpio_handler/gpio_handler.c ****         case GPIO_PIN_5:  case GPIO_PIN_6:  case GPIO_PIN_7:  case GPIO_PIN_8:  case GPIO_PIN_9:
 691              		.loc 1 111 51 view .LVU146
 692 00ce F1E7     		b	.L41
 693              	.LVL38:
 694              	.L36:
 113:Core/Src/gpio_handler/gpio_handler.c ****         case GPIO_PIN_10: case GPIO_PIN_11: case GPIO_PIN_12: case GPIO_PIN_13: case GPIO_PIN_14: c
 695              		.loc 1 113 23 view .LVU147
 696 00d0 1724     		movs	r4, #23
 697 00d2 EFE7     		b	.L41
 698              	.L47:
 108:Core/Src/gpio_handler/gpio_handler.c ****         case GPIO_PIN_2:  EXTI_IRQn = EXTI2_IRQn; break;
 699              		.loc 1 108 37 view .LVU148
 700 00d4 0724     		movs	r4, #7
 701 00d6 EDE7     		b	.L41
 702              	.L48:
ARM GAS  /var/folders/25/vg8ydb454_z3v37m53jqj5280000gn/T//ccsflArE.s 			page 16


 115:Core/Src/gpio_handler/gpio_handler.c ****         default: return;
 703              		.loc 1 115 23 view .LVU149
 704 00d8 2824     		movs	r4, #40
 705 00da EBE7     		b	.L41
 706              	.L49:
 113:Core/Src/gpio_handler/gpio_handler.c ****         case GPIO_PIN_10: case GPIO_PIN_11: case GPIO_PIN_12: case GPIO_PIN_13: case GPIO_PIN_14: c
 707              		.loc 1 113 23 view .LVU150
 708 00dc 1724     		movs	r4, #23
 709 00de E9E7     		b	.L41
 710              	.L50:
 711 00e0 1724     		movs	r4, #23
 712 00e2 E7E7     		b	.L41
 713              	.L53:
 115:Core/Src/gpio_handler/gpio_handler.c ****         default: return;
 714              		.loc 1 115 23 view .LVU151
 715 00e4 2824     		movs	r4, #40
 716 00e6 E5E7     		b	.L41
 717              	.L54:
 718 00e8 2824     		movs	r4, #40
 719 00ea E3E7     		b	.L41
 720              	.L56:
 721 00ec 2824     		movs	r4, #40
 722 00ee E1E7     		b	.L41
 723              		.cfi_endproc
 724              	.LFE141:
 726              		.section	.text.DigitalIn_Init,"ax",%progbits
 727              		.align	1
 728              		.global	DigitalIn_Init
 729              		.syntax unified
 730              		.thumb
 731              		.thumb_func
 733              	DigitalIn_Init:
 734              	.LVL39:
 735              	.LFB142:
 122:Core/Src/gpio_handler/gpio_handler.c **** 
 123:Core/Src/gpio_handler/gpio_handler.c **** /**
 124:Core/Src/gpio_handler/gpio_handler.c ****  * @brief Initializes the fields of a DigitalIn software struct.
 125:Core/Src/gpio_handler/gpio_handler.c ****  */
 126:Core/Src/gpio_handler/gpio_handler.c **** void DigitalIn_Init(DigitalIn* digital_in, Pin_t pin) {
 736              		.loc 1 126 55 is_stmt 1 view -0
 737              		.cfi_startproc
 738              		@ args = 0, pretend = 0, frame = 8
 739              		@ frame_needed = 0, uses_anonymous_args = 0
 740              		@ link register save eliminated.
 741              		.loc 1 126 55 is_stmt 0 view .LVU153
 742 0000 82B0     		sub	sp, sp, #8
 743              	.LCFI19:
 744              		.cfi_def_cfa_offset 8
 745 0002 02AB     		add	r3, sp, #8
 746 0004 03E90600 		stmdb	r3, {r1, r2}
 127:Core/Src/gpio_handler/gpio_handler.c ****     if (digital_in == NULL) return;
 747              		.loc 1 127 5 is_stmt 1 view .LVU154
 748              		.loc 1 127 8 is_stmt 0 view .LVU155
 749 0008 50B1     		cbz	r0, .L61
 750 000a 0346     		mov	r3, r0
 128:Core/Src/gpio_handler/gpio_handler.c ****     digital_in->pin = pin;
 751              		.loc 1 128 5 is_stmt 1 view .LVU156
ARM GAS  /var/folders/25/vg8ydb454_z3v37m53jqj5280000gn/T//ccsflArE.s 			page 17


 752              		.loc 1 128 21 is_stmt 0 view .LVU157
 753 000c 02AA     		add	r2, sp, #8
 754 000e 12E90300 		ldmdb	r2, {r0, r1}
 755              	.LVL40:
 756              		.loc 1 128 21 view .LVU158
 757 0012 83E80300 		stm	r3, {r0, r1}
 129:Core/Src/gpio_handler/gpio_handler.c ****     digital_in->state = GPIO_PIN_RESET;
 758              		.loc 1 129 5 is_stmt 1 view .LVU159
 759              		.loc 1 129 23 is_stmt 0 view .LVU160
 760 0016 0022     		movs	r2, #0
 761 0018 1A72     		strb	r2, [r3, #8]
 130:Core/Src/gpio_handler/gpio_handler.c ****     digital_in->last_stable_state = GPIO_PIN_RESET;
 762              		.loc 1 130 5 is_stmt 1 view .LVU161
 763              		.loc 1 130 35 is_stmt 0 view .LVU162
 764 001a 1A74     		strb	r2, [r3, #16]
 131:Core/Src/gpio_handler/gpio_handler.c ****     digital_in->reading = GPIO_PIN_RESET;
 765              		.loc 1 131 5 is_stmt 1 view .LVU163
 766              		.loc 1 131 25 is_stmt 0 view .LVU164
 767 001c 5A72     		strb	r2, [r3, #9]
 132:Core/Src/gpio_handler/gpio_handler.c ****     digital_in->last_debounce_time = 0;
 768              		.loc 1 132 5 is_stmt 1 view .LVU165
 769              		.loc 1 132 36 is_stmt 0 view .LVU166
 770 001e DA60     		str	r2, [r3, #12]
 771              	.LVL41:
 772              	.L61:
 133:Core/Src/gpio_handler/gpio_handler.c **** }
 773              		.loc 1 133 1 view .LVU167
 774 0020 02B0     		add	sp, sp, #8
 775              	.LCFI20:
 776              		.cfi_def_cfa_offset 0
 777              		@ sp needed
 778 0022 7047     		bx	lr
 779              		.cfi_endproc
 780              	.LFE142:
 782              		.section	.text.BuiltinPushButton_Init,"ax",%progbits
 783              		.align	1
 784              		.global	BuiltinPushButton_Init
 785              		.syntax unified
 786              		.thumb
 787              		.thumb_func
 789              	BuiltinPushButton_Init:
 790              	.LFB143:
 134:Core/Src/gpio_handler/gpio_handler.c **** 
 135:Core/Src/gpio_handler/gpio_handler.c **** 
 136:Core/Src/gpio_handler/gpio_handler.c **** /**
 137:Core/Src/gpio_handler/gpio_handler.c ****  * @brief Initializes the hardware and software state for the built-in push button.
 138:Core/Src/gpio_handler/gpio_handler.c ****  */
 139:Core/Src/gpio_handler/gpio_handler.c **** void BuiltinPushButton_Init(void) {
 791              		.loc 1 139 35 is_stmt 1 view -0
 792              		.cfi_startproc
 793              		@ args = 0, pretend = 0, frame = 8
 794              		@ frame_needed = 0, uses_anonymous_args = 0
 795 0000 00B5     		push	{lr}
 796              	.LCFI21:
 797              		.cfi_def_cfa_offset 4
 798              		.cfi_offset 14, -4
 799 0002 83B0     		sub	sp, sp, #12
ARM GAS  /var/folders/25/vg8ydb454_z3v37m53jqj5280000gn/T//ccsflArE.s 			page 18


 800              	.LCFI22:
 801              		.cfi_def_cfa_offset 16
 140:Core/Src/gpio_handler/gpio_handler.c ****     Pin_t button_pin = {GPIOC, GPIO_PIN_13};
 802              		.loc 1 140 5 view .LVU169
 803              		.loc 1 140 11 is_stmt 0 view .LVU170
 804 0004 6B46     		mov	r3, sp
 805 0006 064A     		ldr	r2, .L66
 806 0008 92E80300 		ldm	r2, {r0, r1}
 807 000c 83E80300 		stm	r3, {r0, r1}
 141:Core/Src/gpio_handler/gpio_handler.c ****     // The hardware part (setting pin to IT mode) is now done in MX_GPIO_Init()
 142:Core/Src/gpio_handler/gpio_handler.c ****     // This function just sets up the software struct.
 143:Core/Src/gpio_handler/gpio_handler.c ****     DigitalIn_Init(&g_builtinPushButton, button_pin);
 808              		.loc 1 143 5 is_stmt 1 view .LVU171
 809 0010 93E80600 		ldm	r3, {r1, r2}
 810 0014 0348     		ldr	r0, .L66+4
 811 0016 FFF7FEFF 		bl	DigitalIn_Init
 812              	.LVL42:
 144:Core/Src/gpio_handler/gpio_handler.c **** }
 813              		.loc 1 144 1 is_stmt 0 view .LVU172
 814 001a 03B0     		add	sp, sp, #12
 815              	.LCFI23:
 816              		.cfi_def_cfa_offset 4
 817              		@ sp needed
 818 001c 5DF804FB 		ldr	pc, [sp], #4
 819              	.L67:
 820              		.align	2
 821              	.L66:
 822 0020 08000000 		.word	.LANCHOR0+8
 823 0024 00000000 		.word	g_builtinPushButton
 824              		.cfi_endproc
 825              	.LFE143:
 827              		.section	.rodata.HAL_GPIO_EXTI_Callback.str1.4,"aMS",%progbits,1
 828              		.align	2
 829              	.LC2:
 830 0000 3D3D3D20 		.ascii	"=== Data Logging STARTED ===\015\012\000"
 830      44617461 
 830      204C6F67 
 830      67696E67 
 830      20535441 
 831 001f 00       		.align	2
 832              	.LC3:
 833 0020 3D3D3D20 		.ascii	"=== Data Logging STOPPED ===\015\012\000"
 833      44617461 
 833      204C6F67 
 833      67696E67 
 833      2053544F 
 834              		.section	.text.HAL_GPIO_EXTI_Callback,"ax",%progbits
 835              		.align	1
 836              		.global	HAL_GPIO_EXTI_Callback
 837              		.syntax unified
 838              		.thumb
 839              		.thumb_func
 841              	HAL_GPIO_EXTI_Callback:
 842              	.LVL43:
 843              	.LFB144:
 145:Core/Src/gpio_handler/gpio_handler.c **** 
 146:Core/Src/gpio_handler/gpio_handler.c **** 
ARM GAS  /var/folders/25/vg8ydb454_z3v37m53jqj5280000gn/T//ccsflArE.s 			page 19


 147:Core/Src/gpio_handler/gpio_handler.c **** // --- HAL GPIO Callback ---
 148:Core/Src/gpio_handler/gpio_handler.c **** /**
 149:Core/Src/gpio_handler/gpio_handler.c ****   * @brief  EXTI line detection callbacks.
 150:Core/Src/gpio_handler/gpio_handler.c ****   * @param  GPIO_Pin: Specifies the pins connected to the EXTI line.
 151:Core/Src/gpio_handler/gpio_handler.c ****   * @retval None
 152:Core/Src/gpio_handler/gpio_handler.c ****   */
 153:Core/Src/gpio_handler/gpio_handler.c **** void HAL_GPIO_EXTI_Callback(u16 GPIO_Pin)
 154:Core/Src/gpio_handler/gpio_handler.c **** {
 844              		.loc 1 154 1 is_stmt 1 view -0
 845              		.cfi_startproc
 846              		@ args = 0, pretend = 0, frame = 0
 847              		@ frame_needed = 0, uses_anonymous_args = 0
 848              		.loc 1 154 1 is_stmt 0 view .LVU174
 849 0000 38B5     		push	{r3, r4, r5, lr}
 850              	.LCFI24:
 851              		.cfi_def_cfa_offset 16
 852              		.cfi_offset 3, -16
 853              		.cfi_offset 4, -12
 854              		.cfi_offset 5, -8
 855              		.cfi_offset 14, -4
 856 0002 0446     		mov	r4, r0
 155:Core/Src/gpio_handler/gpio_handler.c ****     static u32 last_accepted_press_time = 0;
 857              		.loc 1 155 5 is_stmt 1 view .LVU175
 156:Core/Src/gpio_handler/gpio_handler.c ****     u32 current_time = HAL_GetTick();
 858              		.loc 1 156 5 view .LVU176
 859              		.loc 1 156 24 is_stmt 0 view .LVU177
 860 0004 FFF7FEFF 		bl	HAL_GetTick
 861              	.LVL44:
 157:Core/Src/gpio_handler/gpio_handler.c **** 
 158:Core/Src/gpio_handler/gpio_handler.c ****     if (GPIO_Pin == g_builtinPushButton.pin.pin) {
 862              		.loc 1 158 5 is_stmt 1 view .LVU178
 863              		.loc 1 158 44 is_stmt 0 view .LVU179
 864 0008 114B     		ldr	r3, .L74
 865 000a 9B88     		ldrh	r3, [r3, #4]
 866              		.loc 1 158 8 view .LVU180
 867 000c A342     		cmp	r3, r4
 868 000e 00D0     		beq	.L73
 869              	.LVL45:
 870              	.L68:
 159:Core/Src/gpio_handler/gpio_handler.c ****         if (current_time - last_accepted_press_time > DEBOUNCE_DELAY_MS) {
 160:Core/Src/gpio_handler/gpio_handler.c ****             g_is_logging_active = !g_is_logging_active;
 161:Core/Src/gpio_handler/gpio_handler.c ****             if (g_is_logging_active) {
 162:Core/Src/gpio_handler/gpio_handler.c ****                 WriteDigitalOut(&g_builtinLed, 1);
 163:Core/Src/gpio_handler/gpio_handler.c ****                 WriteUART_Blocking("=== Data Logging STARTED ===\r\n");
 164:Core/Src/gpio_handler/gpio_handler.c ****             } else {
 165:Core/Src/gpio_handler/gpio_handler.c ****                 WriteDigitalOut(&g_builtinLed, 0);
 166:Core/Src/gpio_handler/gpio_handler.c ****                 WriteUART_Blocking("=== Data Logging STOPPED ===\r\n");
 167:Core/Src/gpio_handler/gpio_handler.c ****             }
 168:Core/Src/gpio_handler/gpio_handler.c ****             last_accepted_press_time = current_time;
 169:Core/Src/gpio_handler/gpio_handler.c ****         }
 170:Core/Src/gpio_handler/gpio_handler.c ****     }
 171:Core/Src/gpio_handler/gpio_handler.c **** }
 871              		.loc 1 171 1 view .LVU181
 872 0010 38BD     		pop	{r3, r4, r5, pc}
 873              	.LVL46:
 874              	.L73:
 875              		.loc 1 171 1 view .LVU182
ARM GAS  /var/folders/25/vg8ydb454_z3v37m53jqj5280000gn/T//ccsflArE.s 			page 20


 876 0012 0546     		mov	r5, r0
 159:Core/Src/gpio_handler/gpio_handler.c ****         if (current_time - last_accepted_press_time > DEBOUNCE_DELAY_MS) {
 877              		.loc 1 159 9 is_stmt 1 view .LVU183
 159:Core/Src/gpio_handler/gpio_handler.c ****         if (current_time - last_accepted_press_time > DEBOUNCE_DELAY_MS) {
 878              		.loc 1 159 26 is_stmt 0 view .LVU184
 879 0014 0F4B     		ldr	r3, .L74+4
 880 0016 1B68     		ldr	r3, [r3]
 881 0018 C31A     		subs	r3, r0, r3
 159:Core/Src/gpio_handler/gpio_handler.c ****         if (current_time - last_accepted_press_time > DEBOUNCE_DELAY_MS) {
 882              		.loc 1 159 12 view .LVU185
 883 001a 642B     		cmp	r3, #100
 884 001c F8D9     		bls	.L68
 160:Core/Src/gpio_handler/gpio_handler.c ****             if (g_is_logging_active) {
 885              		.loc 1 160 13 is_stmt 1 view .LVU186
 886 001e 0E4B     		ldr	r3, .L74+8
 887 0020 1A78     		ldrb	r2, [r3]	@ zero_extendqisi2
 888 0022 82F00102 		eor	r2, r2, #1
 160:Core/Src/gpio_handler/gpio_handler.c ****             if (g_is_logging_active) {
 889              		.loc 1 160 33 is_stmt 0 view .LVU187
 890 0026 1A70     		strb	r2, [r3]
 161:Core/Src/gpio_handler/gpio_handler.c ****                 WriteDigitalOut(&g_builtinLed, 1);
 891              		.loc 1 161 13 is_stmt 1 view .LVU188
 161:Core/Src/gpio_handler/gpio_handler.c ****                 WriteDigitalOut(&g_builtinLed, 1);
 892              		.loc 1 161 17 is_stmt 0 view .LVU189
 893 0028 1B78     		ldrb	r3, [r3]	@ zero_extendqisi2
 161:Core/Src/gpio_handler/gpio_handler.c ****                 WriteDigitalOut(&g_builtinLed, 1);
 894              		.loc 1 161 16 view .LVU190
 895 002a 4BB1     		cbz	r3, .L70
 162:Core/Src/gpio_handler/gpio_handler.c ****                 WriteUART_Blocking("=== Data Logging STARTED ===\r\n");
 896              		.loc 1 162 17 is_stmt 1 view .LVU191
 897 002c 0121     		movs	r1, #1
 898 002e 0B48     		ldr	r0, .L74+12
 899              	.LVL47:
 162:Core/Src/gpio_handler/gpio_handler.c ****                 WriteUART_Blocking("=== Data Logging STARTED ===\r\n");
 900              		.loc 1 162 17 is_stmt 0 view .LVU192
 901 0030 FFF7FEFF 		bl	WriteDigitalOut
 902              	.LVL48:
 163:Core/Src/gpio_handler/gpio_handler.c ****             } else {
 903              		.loc 1 163 17 is_stmt 1 view .LVU193
 904 0034 0A48     		ldr	r0, .L74+16
 905 0036 FFF7FEFF 		bl	WriteUART_Blocking
 906              	.LVL49:
 907              	.L71:
 168:Core/Src/gpio_handler/gpio_handler.c ****         }
 908              		.loc 1 168 13 view .LVU194
 168:Core/Src/gpio_handler/gpio_handler.c ****         }
 909              		.loc 1 168 38 is_stmt 0 view .LVU195
 910 003a 064B     		ldr	r3, .L74+4
 911 003c 1D60     		str	r5, [r3]
 912              		.loc 1 171 1 view .LVU196
 913 003e E7E7     		b	.L68
 914              	.LVL50:
 915              	.L70:
 165:Core/Src/gpio_handler/gpio_handler.c ****                 WriteUART_Blocking("=== Data Logging STOPPED ===\r\n");
 916              		.loc 1 165 17 is_stmt 1 view .LVU197
 917 0040 0021     		movs	r1, #0
 918 0042 0648     		ldr	r0, .L74+12
ARM GAS  /var/folders/25/vg8ydb454_z3v37m53jqj5280000gn/T//ccsflArE.s 			page 21


 919              	.LVL51:
 165:Core/Src/gpio_handler/gpio_handler.c ****                 WriteUART_Blocking("=== Data Logging STOPPED ===\r\n");
 920              		.loc 1 165 17 is_stmt 0 view .LVU198
 921 0044 FFF7FEFF 		bl	WriteDigitalOut
 922              	.LVL52:
 166:Core/Src/gpio_handler/gpio_handler.c ****             }
 923              		.loc 1 166 17 is_stmt 1 view .LVU199
 924 0048 0648     		ldr	r0, .L74+20
 925 004a FFF7FEFF 		bl	WriteUART_Blocking
 926              	.LVL53:
 927 004e F4E7     		b	.L71
 928              	.L75:
 929              		.align	2
 930              	.L74:
 931 0050 00000000 		.word	g_builtinPushButton
 932 0054 00000000 		.word	last_accepted_press_time.0
 933 0058 00000000 		.word	g_is_logging_active
 934 005c 00000000 		.word	g_builtinLed
 935 0060 00000000 		.word	.LC2
 936 0064 20000000 		.word	.LC3
 937              		.cfi_endproc
 938              	.LFE144:
 940              		.section	.bss.last_accepted_press_time.0,"aw",%nobits
 941              		.align	2
 944              	last_accepted_press_time.0:
 945 0000 00000000 		.space	4
 946              		.global	g_is_logging_active
 947              		.section	.bss.g_is_logging_active,"aw",%nobits
 950              	g_is_logging_active:
 951 0000 00       		.space	1
 952              		.global	g_ledToggleTimer
 953              		.section	.bss.g_ledToggleTimer,"aw",%nobits
 954              		.align	2
 957              	g_ledToggleTimer:
 958 0000 00000000 		.space	4
 959              		.global	g_builtinPushButton
 960              		.section	.bss.g_builtinPushButton,"aw",%nobits
 961              		.align	2
 964              	g_builtinPushButton:
 965 0000 00000000 		.space	20
 965      00000000 
 965      00000000 
 965      00000000 
 965      00000000 
 966              		.global	g_builtinLed
 967              		.section	.bss.g_builtinLed,"aw",%nobits
 968              		.align	2
 971              	g_builtinLed:
 972 0000 00000000 		.space	12
 972      00000000 
 972      00000000 
 973              		.section	.rodata
 974              		.align	2
 975              		.set	.LANCHOR0,. + 0
 976              	.LC0:
 977 0000 00000240 		.word	1073872896
 978 0004 2000     		.short	32
ARM GAS  /var/folders/25/vg8ydb454_z3v37m53jqj5280000gn/T//ccsflArE.s 			page 22


 979 0006 0000     		.space	2
 980              	.LC1:
 981 0008 00080240 		.word	1073874944
 982 000c 0020     		.short	8192
 983 000e 0000     		.space	2
 984              		.text
 985              	.Letext0:
 986              		.file 2 "/Applications/ArmGNUToolchain/13.3.rel1/arm-none-eabi/arm-none-eabi/include/machine/_defa
 987              		.file 3 "/Applications/ArmGNUToolchain/13.3.rel1/arm-none-eabi/arm-none-eabi/include/sys/_stdint.h
 988              		.file 4 "Drivers/CMSIS/Device/ST/STM32F4xx/Include/stm32f411xe.h"
 989              		.file 5 "Drivers/STM32F4xx_HAL_Driver/Inc/stm32f4xx_hal_gpio.h"
 990              		.file 6 "Core/Src/library/aml_hal.h"
 991              		.file 7 "Core/Src/gpio_handler/gpio_handler.h"
 992              		.file 8 "Core/Src/uart_handler/uart_handler.h"
 993              		.file 9 "Drivers/STM32F4xx_HAL_Driver/Inc/stm32f4xx_hal.h"
 994              		.file 10 "Drivers/STM32F4xx_HAL_Driver/Inc/stm32f4xx_hal_cortex.h"
 995              		.file 11 "Core/Src/timer/timer.h"
ARM GAS  /var/folders/25/vg8ydb454_z3v37m53jqj5280000gn/T//ccsflArE.s 			page 23


DEFINED SYMBOLS
                            *ABS*:00000000 gpio_handler.c
/var/folders/25/vg8ydb454_z3v37m53jqj5280000gn/T//ccsflArE.s:21     .text.MX_GPIO_Init:00000000 $t
/var/folders/25/vg8ydb454_z3v37m53jqj5280000gn/T//ccsflArE.s:27     .text.MX_GPIO_Init:00000000 MX_GPIO_Init
/var/folders/25/vg8ydb454_z3v37m53jqj5280000gn/T//ccsflArE.s:151    .text.MX_GPIO_Init:00000090 $d
/var/folders/25/vg8ydb454_z3v37m53jqj5280000gn/T//ccsflArE.s:157    .text.WriteDigitalOut:00000000 $t
/var/folders/25/vg8ydb454_z3v37m53jqj5280000gn/T//ccsflArE.s:163    .text.WriteDigitalOut:00000000 WriteDigitalOut
/var/folders/25/vg8ydb454_z3v37m53jqj5280000gn/T//ccsflArE.s:210    .text.AssignDigitalOut:00000000 $t
/var/folders/25/vg8ydb454_z3v37m53jqj5280000gn/T//ccsflArE.s:216    .text.AssignDigitalOut:00000000 AssignDigitalOut
/var/folders/25/vg8ydb454_z3v37m53jqj5280000gn/T//ccsflArE.s:294    .text.ToggleDigitalOut:00000000 $t
/var/folders/25/vg8ydb454_z3v37m53jqj5280000gn/T//ccsflArE.s:300    .text.ToggleDigitalOut:00000000 ToggleDigitalOut
/var/folders/25/vg8ydb454_z3v37m53jqj5280000gn/T//ccsflArE.s:349    .text.BuiltinLED_Init:00000000 $t
/var/folders/25/vg8ydb454_z3v37m53jqj5280000gn/T//ccsflArE.s:355    .text.BuiltinLED_Init:00000000 BuiltinLED_Init
/var/folders/25/vg8ydb454_z3v37m53jqj5280000gn/T//ccsflArE.s:394    .text.BuiltinLED_Init:0000002c $d
/var/folders/25/vg8ydb454_z3v37m53jqj5280000gn/T//ccsflArE.s:971    .bss.g_builtinLed:00000000 g_builtinLed
/var/folders/25/vg8ydb454_z3v37m53jqj5280000gn/T//ccsflArE.s:400    .text.indicate_setup_with_blinks:00000000 $t
/var/folders/25/vg8ydb454_z3v37m53jqj5280000gn/T//ccsflArE.s:406    .text.indicate_setup_with_blinks:00000000 indicate_setup_with_blinks
/var/folders/25/vg8ydb454_z3v37m53jqj5280000gn/T//ccsflArE.s:461    .text.indicate_setup_with_blinks:00000028 $d
/var/folders/25/vg8ydb454_z3v37m53jqj5280000gn/T//ccsflArE.s:466    .text.ToggleLED:00000000 $t
/var/folders/25/vg8ydb454_z3v37m53jqj5280000gn/T//ccsflArE.s:472    .text.ToggleLED:00000000 ToggleLED
/var/folders/25/vg8ydb454_z3v37m53jqj5280000gn/T//ccsflArE.s:512    .text.AssignDigitalIn_IT:00000000 $t
/var/folders/25/vg8ydb454_z3v37m53jqj5280000gn/T//ccsflArE.s:518    .text.AssignDigitalIn_IT:00000000 AssignDigitalIn_IT
/var/folders/25/vg8ydb454_z3v37m53jqj5280000gn/T//ccsflArE.s:571    .text.AssignDigitalIn_IT:00000040 $d
/var/folders/25/vg8ydb454_z3v37m53jqj5280000gn/T//ccsflArE.s:603    .text.AssignDigitalIn_IT:00000060 $t
/var/folders/25/vg8ydb454_z3v37m53jqj5280000gn/T//ccsflArE.s:727    .text.DigitalIn_Init:00000000 $t
/var/folders/25/vg8ydb454_z3v37m53jqj5280000gn/T//ccsflArE.s:733    .text.DigitalIn_Init:00000000 DigitalIn_Init
/var/folders/25/vg8ydb454_z3v37m53jqj5280000gn/T//ccsflArE.s:783    .text.BuiltinPushButton_Init:00000000 $t
/var/folders/25/vg8ydb454_z3v37m53jqj5280000gn/T//ccsflArE.s:789    .text.BuiltinPushButton_Init:00000000 BuiltinPushButton_Init
/var/folders/25/vg8ydb454_z3v37m53jqj5280000gn/T//ccsflArE.s:822    .text.BuiltinPushButton_Init:00000020 $d
/var/folders/25/vg8ydb454_z3v37m53jqj5280000gn/T//ccsflArE.s:964    .bss.g_builtinPushButton:00000000 g_builtinPushButton
/var/folders/25/vg8ydb454_z3v37m53jqj5280000gn/T//ccsflArE.s:828    .rodata.HAL_GPIO_EXTI_Callback.str1.4:00000000 $d
/var/folders/25/vg8ydb454_z3v37m53jqj5280000gn/T//ccsflArE.s:835    .text.HAL_GPIO_EXTI_Callback:00000000 $t
/var/folders/25/vg8ydb454_z3v37m53jqj5280000gn/T//ccsflArE.s:841    .text.HAL_GPIO_EXTI_Callback:00000000 HAL_GPIO_EXTI_Callback
/var/folders/25/vg8ydb454_z3v37m53jqj5280000gn/T//ccsflArE.s:931    .text.HAL_GPIO_EXTI_Callback:00000050 $d
/var/folders/25/vg8ydb454_z3v37m53jqj5280000gn/T//ccsflArE.s:944    .bss.last_accepted_press_time.0:00000000 last_accepted_press_time.0
/var/folders/25/vg8ydb454_z3v37m53jqj5280000gn/T//ccsflArE.s:950    .bss.g_is_logging_active:00000000 g_is_logging_active
/var/folders/25/vg8ydb454_z3v37m53jqj5280000gn/T//ccsflArE.s:941    .bss.last_accepted_press_time.0:00000000 $d
/var/folders/25/vg8ydb454_z3v37m53jqj5280000gn/T//ccsflArE.s:951    .bss.g_is_logging_active:00000000 $d
/var/folders/25/vg8ydb454_z3v37m53jqj5280000gn/T//ccsflArE.s:957    .bss.g_ledToggleTimer:00000000 g_ledToggleTimer
/var/folders/25/vg8ydb454_z3v37m53jqj5280000gn/T//ccsflArE.s:954    .bss.g_ledToggleTimer:00000000 $d
/var/folders/25/vg8ydb454_z3v37m53jqj5280000gn/T//ccsflArE.s:961    .bss.g_builtinPushButton:00000000 $d
/var/folders/25/vg8ydb454_z3v37m53jqj5280000gn/T//ccsflArE.s:968    .bss.g_builtinLed:00000000 $d
/var/folders/25/vg8ydb454_z3v37m53jqj5280000gn/T//ccsflArE.s:974    .rodata:00000000 $d

UNDEFINED SYMBOLS
HAL_GPIO_Init
HAL_NVIC_SetPriority
HAL_NVIC_EnableIRQ
HAL_GPIO_WritePin
HAL_GPIO_TogglePin
HAL_Delay
timer_handler
HAL_GetTick
WriteUART_Blocking
