ARM GAS  /var/folders/t0/g2s8z9xd75s2k51g_zcxx3qc0000gn/T//cc9lNoQM.s 			page 1


   1              		.cpu cortex-m4
   2              		.arch armv7e-m
   3              		.fpu fpv4-sp-d16
   4              		.eabi_attribute 27, 1
   5              		.eabi_attribute 28, 1
   6              		.eabi_attribute 20, 1
   7              		.eabi_attribute 21, 1
   8              		.eabi_attribute 23, 3
   9              		.eabi_attribute 24, 1
  10              		.eabi_attribute 25, 1
  11              		.eabi_attribute 26, 1
  12              		.eabi_attribute 30, 1
  13              		.eabi_attribute 34, 1
  14              		.eabi_attribute 18, 4
  15              		.file	"i2c_handler.c"
  16              		.text
  17              	.Ltext0:
  18              		.cfi_sections	.debug_frame
  19              		.file 1 "Core/Src/i2c_handler/i2c_handler.c"
  20              		.section	.rodata.MX_I2C1_Init.str1.4,"aMS",%progbits,1
  21              		.align	2
  22              	.LC0:
  23 0000 41747465 		.ascii	"Attempting HAL_I2C_Init...\015\012\000"
  23      6D707469 
  23      6E672048 
  23      414C5F49 
  23      32435F49 
  24 001d 000000   		.align	2
  25              	.LC1:
  26 0020 48414C5F 		.ascii	"HAL_I2C_Init FAILED! Entering Error_Handler.\015\012"
  26      4932435F 
  26      496E6974 
  26      20464149 
  26      4C454421 
  27 004e 00       		.ascii	"\000"
  28 004f 00       		.align	2
  29              	.LC2:
  30 0050 48414C5F 		.ascii	"HAL_I2C_Init Successful.\015\012\000"
  30      4932435F 
  30      496E6974 
  30      20537563 
  30      63657373 
  31              		.section	.text.MX_I2C1_Init,"ax",%progbits
  32              		.align	1
  33              		.global	MX_I2C1_Init
  34              		.syntax unified
  35              		.thumb
  36              		.thumb_func
  38              	MX_I2C1_Init:
  39              	.LFB137:
   1:Core/Src/i2c_handler/i2c_handler.c **** /**
   2:Core/Src/i2c_handler/i2c_handler.c ****   ******************************************************************************
   3:Core/Src/i2c_handler/i2c_handler.c ****   * @file    i2c_handler.c
   4:Core/Src/i2c_handler/i2c_handler.c ****   * @brief   This file provides code for I2C handling, specifically for an
   5:Core/Src/i2c_handler/i2c_handler.c ****   *          LIS3DH accelerometer.
   6:Core/Src/i2c_handler/i2c_handler.c ****   ******************************************************************************
   7:Core/Src/i2c_handler/i2c_handler.c ****   */
ARM GAS  /var/folders/t0/g2s8z9xd75s2k51g_zcxx3qc0000gn/T//cc9lNoQM.s 			page 2


   8:Core/Src/i2c_handler/i2c_handler.c **** 
   9:Core/Src/i2c_handler/i2c_handler.c **** #include "i2c_handler.h"
  10:Core/Src/i2c_handler/i2c_handler.c **** 
  11:Core/Src/i2c_handler/i2c_handler.c **** I2C_HandleTypeDef hi2c1;
  12:Core/Src/i2c_handler/i2c_handler.c **** volatile bool acc_enabled = false;
  13:Core/Src/i2c_handler/i2c_handler.c **** u8 rawData[6];
  14:Core/Src/i2c_handler/i2c_handler.c **** 
  15:Core/Src/i2c_handler/i2c_handler.c **** void MX_I2C1_Init(void) {
  40              		.loc 1 15 25 view -0
  41              		.cfi_startproc
  42              		@ args = 0, pretend = 0, frame = 0
  43              		@ frame_needed = 0, uses_anonymous_args = 0
  44 0000 08B5     		push	{r3, lr}
  45              	.LCFI0:
  46              		.cfi_def_cfa_offset 8
  47              		.cfi_offset 3, -8
  48              		.cfi_offset 14, -4
  16:Core/Src/i2c_handler/i2c_handler.c ****     WriteUART_Blocking("Attempting HAL_I2C_Init...\r\n");
  49              		.loc 1 16 5 view .LVU1
  50 0002 1748     		ldr	r0, .L5
  51 0004 FFF7FEFF 		bl	WriteUART_Blocking
  52              	.LVL0:
  17:Core/Src/i2c_handler/i2c_handler.c **** 
  18:Core/Src/i2c_handler/i2c_handler.c ****     hi2c1.Instance = I2C1;
  53              		.loc 1 18 5 view .LVU2
  54              		.loc 1 18 20 is_stmt 0 view .LVU3
  55 0008 1648     		ldr	r0, .L5+4
  56 000a 174B     		ldr	r3, .L5+8
  57 000c 0360     		str	r3, [r0]
  19:Core/Src/i2c_handler/i2c_handler.c ****     hi2c1.Init.ClockSpeed = 100000;
  58              		.loc 1 19 5 is_stmt 1 view .LVU4
  59              		.loc 1 19 27 is_stmt 0 view .LVU5
  60 000e 174B     		ldr	r3, .L5+12
  61 0010 4360     		str	r3, [r0, #4]
  20:Core/Src/i2c_handler/i2c_handler.c ****     hi2c1.Init.DutyCycle = I2C_DUTYCYCLE_2;
  62              		.loc 1 20 5 is_stmt 1 view .LVU6
  63              		.loc 1 20 26 is_stmt 0 view .LVU7
  64 0012 0023     		movs	r3, #0
  65 0014 8360     		str	r3, [r0, #8]
  21:Core/Src/i2c_handler/i2c_handler.c ****     hi2c1.Init.OwnAddress1 = 0;
  66              		.loc 1 21 5 is_stmt 1 view .LVU8
  67              		.loc 1 21 28 is_stmt 0 view .LVU9
  68 0016 C360     		str	r3, [r0, #12]
  22:Core/Src/i2c_handler/i2c_handler.c ****     hi2c1.Init.AddressingMode = I2C_ADDRESSINGMODE_7BIT;
  69              		.loc 1 22 5 is_stmt 1 view .LVU10
  70              		.loc 1 22 31 is_stmt 0 view .LVU11
  71 0018 4FF48042 		mov	r2, #16384
  72 001c 0261     		str	r2, [r0, #16]
  23:Core/Src/i2c_handler/i2c_handler.c ****     hi2c1.Init.DualAddressMode = I2C_DUALADDRESS_DISABLE;
  73              		.loc 1 23 5 is_stmt 1 view .LVU12
  74              		.loc 1 23 32 is_stmt 0 view .LVU13
  75 001e 4361     		str	r3, [r0, #20]
  24:Core/Src/i2c_handler/i2c_handler.c ****     hi2c1.Init.OwnAddress2 = 0;
  76              		.loc 1 24 5 is_stmt 1 view .LVU14
  77              		.loc 1 24 28 is_stmt 0 view .LVU15
  78 0020 8361     		str	r3, [r0, #24]
  25:Core/Src/i2c_handler/i2c_handler.c ****     hi2c1.Init.GeneralCallMode = I2C_GENERALCALL_DISABLE;
ARM GAS  /var/folders/t0/g2s8z9xd75s2k51g_zcxx3qc0000gn/T//cc9lNoQM.s 			page 3


  79              		.loc 1 25 5 is_stmt 1 view .LVU16
  80              		.loc 1 25 32 is_stmt 0 view .LVU17
  81 0022 C361     		str	r3, [r0, #28]
  26:Core/Src/i2c_handler/i2c_handler.c ****     hi2c1.Init.NoStretchMode = I2C_NOSTRETCH_DISABLE;
  82              		.loc 1 26 5 is_stmt 1 view .LVU18
  83              		.loc 1 26 30 is_stmt 0 view .LVU19
  84 0024 0362     		str	r3, [r0, #32]
  27:Core/Src/i2c_handler/i2c_handler.c **** 
  28:Core/Src/i2c_handler/i2c_handler.c ****     if (HAL_I2C_Init(&hi2c1) != HAL_OK) {
  85              		.loc 1 28 5 is_stmt 1 view .LVU20
  86              		.loc 1 28 9 is_stmt 0 view .LVU21
  87 0026 FFF7FEFF 		bl	HAL_I2C_Init
  88              	.LVL1:
  89              		.loc 1 28 8 discriminator 1 view .LVU22
  90 002a 98B9     		cbnz	r0, .L4
  91              	.L2:
  29:Core/Src/i2c_handler/i2c_handler.c ****         WriteUART_Blocking("HAL_I2C_Init FAILED! Entering Error_Handler.\r\n");
  30:Core/Src/i2c_handler/i2c_handler.c ****         Error_Handler();
  31:Core/Src/i2c_handler/i2c_handler.c ****     }
  32:Core/Src/i2c_handler/i2c_handler.c **** 
  33:Core/Src/i2c_handler/i2c_handler.c ****     WriteUART_Blocking("HAL_I2C_Init Successful.\r\n");
  92              		.loc 1 33 5 is_stmt 1 view .LVU23
  93 002c 1048     		ldr	r0, .L5+16
  94 002e FFF7FEFF 		bl	WriteUART_Blocking
  95              	.LVL2:
  34:Core/Src/i2c_handler/i2c_handler.c **** 
  35:Core/Src/i2c_handler/i2c_handler.c ****     HAL_NVIC_SetPriority(I2C1_EV_IRQn, 0, 0);
  96              		.loc 1 35 5 view .LVU24
  97 0032 0022     		movs	r2, #0
  98 0034 1146     		mov	r1, r2
  99 0036 1F20     		movs	r0, #31
 100 0038 FFF7FEFF 		bl	HAL_NVIC_SetPriority
 101              	.LVL3:
  36:Core/Src/i2c_handler/i2c_handler.c ****     HAL_NVIC_EnableIRQ(I2C1_EV_IRQn);
 102              		.loc 1 36 5 view .LVU25
 103 003c 1F20     		movs	r0, #31
 104 003e FFF7FEFF 		bl	HAL_NVIC_EnableIRQ
 105              	.LVL4:
  37:Core/Src/i2c_handler/i2c_handler.c ****     HAL_NVIC_SetPriority(I2C1_ER_IRQn, 0, 1);
 106              		.loc 1 37 5 view .LVU26
 107 0042 0122     		movs	r2, #1
 108 0044 0021     		movs	r1, #0
 109 0046 2020     		movs	r0, #32
 110 0048 FFF7FEFF 		bl	HAL_NVIC_SetPriority
 111              	.LVL5:
  38:Core/Src/i2c_handler/i2c_handler.c ****     HAL_NVIC_EnableIRQ(I2C1_ER_IRQn);
 112              		.loc 1 38 5 view .LVU27
 113 004c 2020     		movs	r0, #32
 114 004e FFF7FEFF 		bl	HAL_NVIC_EnableIRQ
 115              	.LVL6:
  39:Core/Src/i2c_handler/i2c_handler.c **** }
 116              		.loc 1 39 1 is_stmt 0 view .LVU28
 117 0052 08BD     		pop	{r3, pc}
 118              	.L4:
  29:Core/Src/i2c_handler/i2c_handler.c ****         Error_Handler();
 119              		.loc 1 29 9 is_stmt 1 view .LVU29
 120 0054 0748     		ldr	r0, .L5+20
ARM GAS  /var/folders/t0/g2s8z9xd75s2k51g_zcxx3qc0000gn/T//cc9lNoQM.s 			page 4


 121 0056 FFF7FEFF 		bl	WriteUART_Blocking
 122              	.LVL7:
  30:Core/Src/i2c_handler/i2c_handler.c ****     }
 123              		.loc 1 30 9 view .LVU30
 124 005a FFF7FEFF 		bl	Error_Handler
 125              	.LVL8:
 126 005e E5E7     		b	.L2
 127              	.L6:
 128              		.align	2
 129              	.L5:
 130 0060 00000000 		.word	.LC0
 131 0064 00000000 		.word	hi2c1
 132 0068 00540040 		.word	1073763328
 133 006c A0860100 		.word	100000
 134 0070 50000000 		.word	.LC2
 135 0074 20000000 		.word	.LC1
 136              		.cfi_endproc
 137              	.LFE137:
 139              		.section	.rodata.I2C_connectivity_check.str1.4,"aMS",%progbits,1
 140              		.align	2
 141              	.LC3:
 142 0000 49324320 		.ascii	"I2C LIS3DH (0x18) is ready.\015\012\000"
 142      4C495333 
 142      44482028 
 142      30783138 
 142      29206973 
 143 001e 0000     		.align	2
 144              	.LC4:
 145 0020 49324320 		.ascii	"I2C LIS3DH (0x18) not found. Status: %d\015\012\000"
 145      4C495333 
 145      44482028 
 145      30783138 
 145      29206E6F 
 146              		.section	.text.I2C_connectivity_check,"ax",%progbits
 147              		.align	1
 148              		.global	I2C_connectivity_check
 149              		.syntax unified
 150              		.thumb
 151              		.thumb_func
 153              	I2C_connectivity_check:
 154              	.LFB139:
  40:Core/Src/i2c_handler/i2c_handler.c **** 
  41:Core/Src/i2c_handler/i2c_handler.c **** bool BVAT_I2C_Init(void) {
  42:Core/Src/i2c_handler/i2c_handler.c ****     bool device_is_ok;
  43:Core/Src/i2c_handler/i2c_handler.c ****     WriteUART_Blocking("Performing I2C device checks (LIS3DH)...\r\n");
  44:Core/Src/i2c_handler/i2c_handler.c ****     device_is_ok = I2C_connectivity_check();
  45:Core/Src/i2c_handler/i2c_handler.c **** 
  46:Core/Src/i2c_handler/i2c_handler.c ****     if (device_is_ok) {
  47:Core/Src/i2c_handler/i2c_handler.c ****         I2C_ACC_Enable();
  48:Core/Src/i2c_handler/i2c_handler.c ****         HAL_Delay(100);
  49:Core/Src/i2c_handler/i2c_handler.c ****         WriteUART_Blocking("LIS3DH Accelerometer configuration command sent.\r\n");
  50:Core/Src/i2c_handler/i2c_handler.c ****     } else {
  51:Core/Src/i2c_handler/i2c_handler.c ****         WriteUART_Blocking("LIS3DH Accelerometer NOT configured due to I2C issue.\r\n");
  52:Core/Src/i2c_handler/i2c_handler.c ****     }
  53:Core/Src/i2c_handler/i2c_handler.c ****     return device_is_ok;
  54:Core/Src/i2c_handler/i2c_handler.c **** }
  55:Core/Src/i2c_handler/i2c_handler.c **** 
ARM GAS  /var/folders/t0/g2s8z9xd75s2k51g_zcxx3qc0000gn/T//cc9lNoQM.s 			page 5


  56:Core/Src/i2c_handler/i2c_handler.c **** bool I2C_connectivity_check(void) {
 155              		.loc 1 56 35 view -0
 156              		.cfi_startproc
 157              		@ args = 0, pretend = 0, frame = 0
 158              		@ frame_needed = 0, uses_anonymous_args = 0
 159 0000 10B5     		push	{r4, lr}
 160              	.LCFI1:
 161              		.cfi_def_cfa_offset 8
 162              		.cfi_offset 4, -8
 163              		.cfi_offset 14, -4
  57:Core/Src/i2c_handler/i2c_handler.c ****     HAL_StatusTypeDef status;
 164              		.loc 1 57 5 view .LVU32
  58:Core/Src/i2c_handler/i2c_handler.c ****     uint32_t trials = 3;
 165              		.loc 1 58 5 view .LVU33
 166              	.LVL9:
  59:Core/Src/i2c_handler/i2c_handler.c ****     uint32_t timeout = 100;
 167              		.loc 1 59 5 view .LVU34
  60:Core/Src/i2c_handler/i2c_handler.c ****     static char msg_buffer[64];
 168              		.loc 1 60 5 view .LVU35
  61:Core/Src/i2c_handler/i2c_handler.c **** 
  62:Core/Src/i2c_handler/i2c_handler.c ****     status = HAL_I2C_IsDeviceReady(&hi2c1, ACC_I2C_ADDR, trials, timeout);
 169              		.loc 1 62 5 view .LVU36
 170              		.loc 1 62 14 is_stmt 0 view .LVU37
 171 0002 6423     		movs	r3, #100
 172 0004 0322     		movs	r2, #3
 173 0006 3021     		movs	r1, #48
 174 0008 0948     		ldr	r0, .L11
 175 000a FFF7FEFF 		bl	HAL_I2C_IsDeviceReady
 176              	.LVL10:
  63:Core/Src/i2c_handler/i2c_handler.c **** 
  64:Core/Src/i2c_handler/i2c_handler.c ****     if (status == HAL_OK) {
 177              		.loc 1 64 5 is_stmt 1 view .LVU38
 178              		.loc 1 64 8 is_stmt 0 view .LVU39
 179 000e 20B9     		cbnz	r0, .L8
  65:Core/Src/i2c_handler/i2c_handler.c ****         WriteUART_Blocking("I2C LIS3DH (0x18) is ready.\r\n");
 180              		.loc 1 65 9 is_stmt 1 view .LVU40
 181 0010 0848     		ldr	r0, .L11+4
 182              	.LVL11:
 183              		.loc 1 65 9 is_stmt 0 view .LVU41
 184 0012 FFF7FEFF 		bl	WriteUART_Blocking
 185              	.LVL12:
  66:Core/Src/i2c_handler/i2c_handler.c ****         return true;
 186              		.loc 1 66 9 is_stmt 1 view .LVU42
 187              		.loc 1 66 16 is_stmt 0 view .LVU43
 188 0016 0120     		movs	r0, #1
 189              	.L9:
  67:Core/Src/i2c_handler/i2c_handler.c ****     } else {
  68:Core/Src/i2c_handler/i2c_handler.c ****         sprintf(msg_buffer, "I2C LIS3DH (0x18) not found. Status: %d\r\n", status);
  69:Core/Src/i2c_handler/i2c_handler.c ****         WriteUART_Blocking(msg_buffer);
  70:Core/Src/i2c_handler/i2c_handler.c ****         return false;
  71:Core/Src/i2c_handler/i2c_handler.c ****     }
  72:Core/Src/i2c_handler/i2c_handler.c **** }
 190              		.loc 1 72 1 view .LVU44
 191 0018 10BD     		pop	{r4, pc}
 192              	.LVL13:
 193              	.L8:
 194              		.loc 1 72 1 view .LVU45
ARM GAS  /var/folders/t0/g2s8z9xd75s2k51g_zcxx3qc0000gn/T//cc9lNoQM.s 			page 6


 195 001a 0246     		mov	r2, r0
  68:Core/Src/i2c_handler/i2c_handler.c ****         WriteUART_Blocking(msg_buffer);
 196              		.loc 1 68 9 is_stmt 1 view .LVU46
 197 001c 064C     		ldr	r4, .L11+8
 198 001e 0749     		ldr	r1, .L11+12
 199 0020 2046     		mov	r0, r4
 200              	.LVL14:
  68:Core/Src/i2c_handler/i2c_handler.c ****         WriteUART_Blocking(msg_buffer);
 201              		.loc 1 68 9 is_stmt 0 view .LVU47
 202 0022 FFF7FEFF 		bl	sprintf
 203              	.LVL15:
  69:Core/Src/i2c_handler/i2c_handler.c ****         return false;
 204              		.loc 1 69 9 is_stmt 1 view .LVU48
 205 0026 2046     		mov	r0, r4
 206 0028 FFF7FEFF 		bl	WriteUART_Blocking
 207              	.LVL16:
  70:Core/Src/i2c_handler/i2c_handler.c ****     }
 208              		.loc 1 70 9 view .LVU49
  70:Core/Src/i2c_handler/i2c_handler.c ****     }
 209              		.loc 1 70 16 is_stmt 0 view .LVU50
 210 002c 0020     		movs	r0, #0
 211 002e F3E7     		b	.L9
 212              	.L12:
 213              		.align	2
 214              	.L11:
 215 0030 00000000 		.word	hi2c1
 216 0034 00000000 		.word	.LC3
 217 0038 00000000 		.word	msg_buffer.2
 218 003c 20000000 		.word	.LC4
 219              		.cfi_endproc
 220              	.LFE139:
 222              		.section	.rodata.I2C_ACC_Enable.str1.4,"aMS",%progbits,1
 223              		.align	2
 224              	.LC5:
 225 0000 4C495333 		.ascii	"LIS3DH CTRL_REG1 Write OK (Blocking).\015\012\000"
 225      44482043 
 225      54524C5F 
 225      52454731 
 225      20577269 
 226              		.align	2
 227              	.LC6:
 228 0028 4C495333 		.ascii	"LIS3DH CTRL_REG1 Write FAILED. Status: %d\015\012\000"
 228      44482043 
 228      54524C5F 
 228      52454731 
 228      20577269 
 229              		.section	.text.I2C_ACC_Enable,"ax",%progbits
 230              		.align	1
 231              		.global	I2C_ACC_Enable
 232              		.syntax unified
 233              		.thumb
 234              		.thumb_func
 236              	I2C_ACC_Enable:
 237              	.LFB140:
  73:Core/Src/i2c_handler/i2c_handler.c **** 
  74:Core/Src/i2c_handler/i2c_handler.c **** void I2C_ACC_Enable(void) {
 238              		.loc 1 74 27 is_stmt 1 view -0
ARM GAS  /var/folders/t0/g2s8z9xd75s2k51g_zcxx3qc0000gn/T//cc9lNoQM.s 			page 7


 239              		.cfi_startproc
 240              		@ args = 0, pretend = 0, frame = 8
 241              		@ frame_needed = 0, uses_anonymous_args = 0
 242 0000 10B5     		push	{r4, lr}
 243              	.LCFI2:
 244              		.cfi_def_cfa_offset 8
 245              		.cfi_offset 4, -8
 246              		.cfi_offset 14, -4
 247 0002 86B0     		sub	sp, sp, #24
 248              	.LCFI3:
 249              		.cfi_def_cfa_offset 32
  75:Core/Src/i2c_handler/i2c_handler.c ****     u8 ctrl1_config_value = ACC_CTRL_REG1_CONFIG_100HZ;
 250              		.loc 1 75 5 view .LVU52
 251              		.loc 1 75 8 is_stmt 0 view .LVU53
 252 0004 5723     		movs	r3, #87
 253 0006 8DF81730 		strb	r3, [sp, #23]
  76:Core/Src/i2c_handler/i2c_handler.c ****     HAL_StatusTypeDef status;
 254              		.loc 1 76 5 is_stmt 1 view .LVU54
  77:Core/Src/i2c_handler/i2c_handler.c **** 
  78:Core/Src/i2c_handler/i2c_handler.c ****     status = HAL_I2C_Mem_Write(&hi2c1,
 255              		.loc 1 78 5 view .LVU55
 256              		.loc 1 78 14 is_stmt 0 view .LVU56
 257 000a 6423     		movs	r3, #100
 258 000c 0293     		str	r3, [sp, #8]
 259 000e 0123     		movs	r3, #1
 260 0010 0193     		str	r3, [sp, #4]
 261 0012 0DF11702 		add	r2, sp, #23
 262 0016 0092     		str	r2, [sp]
 263 0018 2022     		movs	r2, #32
 264 001a 3021     		movs	r1, #48
 265 001c 0C48     		ldr	r0, .L17
 266 001e FFF7FEFF 		bl	HAL_I2C_Mem_Write
 267              	.LVL17:
  79:Core/Src/i2c_handler/i2c_handler.c ****                                ACC_I2C_ADDR,
  80:Core/Src/i2c_handler/i2c_handler.c ****                                LIS3DH_REG_CTRL_REG1,
  81:Core/Src/i2c_handler/i2c_handler.c ****                                I2C_MEMADD_SIZE_8BIT,
  82:Core/Src/i2c_handler/i2c_handler.c ****                                &ctrl1_config_value,
  83:Core/Src/i2c_handler/i2c_handler.c ****                                1,
  84:Core/Src/i2c_handler/i2c_handler.c ****                                100);
  85:Core/Src/i2c_handler/i2c_handler.c **** 
  86:Core/Src/i2c_handler/i2c_handler.c ****     if (status == HAL_OK) {
 268              		.loc 1 86 5 is_stmt 1 view .LVU57
 269              		.loc 1 86 8 is_stmt 0 view .LVU58
 270 0022 38B9     		cbnz	r0, .L14
  87:Core/Src/i2c_handler/i2c_handler.c ****         WriteUART_Blocking("LIS3DH CTRL_REG1 Write OK (Blocking).\r\n");
 271              		.loc 1 87 9 is_stmt 1 view .LVU59
 272 0024 0B48     		ldr	r0, .L17+4
 273              	.LVL18:
 274              		.loc 1 87 9 is_stmt 0 view .LVU60
 275 0026 FFF7FEFF 		bl	WriteUART_Blocking
 276              	.LVL19:
  88:Core/Src/i2c_handler/i2c_handler.c ****         acc_enabled = true;
 277              		.loc 1 88 9 is_stmt 1 view .LVU61
 278              		.loc 1 88 21 is_stmt 0 view .LVU62
 279 002a 0B4B     		ldr	r3, .L17+8
 280 002c 0122     		movs	r2, #1
 281 002e 1A70     		strb	r2, [r3]
ARM GAS  /var/folders/t0/g2s8z9xd75s2k51g_zcxx3qc0000gn/T//cc9lNoQM.s 			page 8


 282              	.L13:
  89:Core/Src/i2c_handler/i2c_handler.c ****     } else {
  90:Core/Src/i2c_handler/i2c_handler.c ****         static char err_buf[64];
  91:Core/Src/i2c_handler/i2c_handler.c ****         sprintf(err_buf, "LIS3DH CTRL_REG1 Write FAILED. Status: %d\r\n", status);
  92:Core/Src/i2c_handler/i2c_handler.c ****         WriteUART_Blocking(err_buf);
  93:Core/Src/i2c_handler/i2c_handler.c ****         acc_enabled = false;
  94:Core/Src/i2c_handler/i2c_handler.c ****     }
  95:Core/Src/i2c_handler/i2c_handler.c **** }
 283              		.loc 1 95 1 view .LVU63
 284 0030 06B0     		add	sp, sp, #24
 285              	.LCFI4:
 286              		.cfi_remember_state
 287              		.cfi_def_cfa_offset 8
 288              		@ sp needed
 289 0032 10BD     		pop	{r4, pc}
 290              	.LVL20:
 291              	.L14:
 292              	.LCFI5:
 293              		.cfi_restore_state
 294              		.loc 1 95 1 view .LVU64
 295 0034 0246     		mov	r2, r0
 296              	.LBB2:
  90:Core/Src/i2c_handler/i2c_handler.c ****         sprintf(err_buf, "LIS3DH CTRL_REG1 Write FAILED. Status: %d\r\n", status);
 297              		.loc 1 90 9 is_stmt 1 view .LVU65
  91:Core/Src/i2c_handler/i2c_handler.c ****         WriteUART_Blocking(err_buf);
 298              		.loc 1 91 9 view .LVU66
 299 0036 094C     		ldr	r4, .L17+12
 300 0038 0949     		ldr	r1, .L17+16
 301 003a 2046     		mov	r0, r4
 302              	.LVL21:
  91:Core/Src/i2c_handler/i2c_handler.c ****         WriteUART_Blocking(err_buf);
 303              		.loc 1 91 9 is_stmt 0 view .LVU67
 304 003c FFF7FEFF 		bl	sprintf
 305              	.LVL22:
  92:Core/Src/i2c_handler/i2c_handler.c ****         acc_enabled = false;
 306              		.loc 1 92 9 is_stmt 1 view .LVU68
 307 0040 2046     		mov	r0, r4
 308 0042 FFF7FEFF 		bl	WriteUART_Blocking
 309              	.LVL23:
  93:Core/Src/i2c_handler/i2c_handler.c ****     }
 310              		.loc 1 93 9 view .LVU69
  93:Core/Src/i2c_handler/i2c_handler.c ****     }
 311              		.loc 1 93 21 is_stmt 0 view .LVU70
 312 0046 044B     		ldr	r3, .L17+8
 313 0048 0022     		movs	r2, #0
 314 004a 1A70     		strb	r2, [r3]
 315              	.LBE2:
 316              		.loc 1 95 1 view .LVU71
 317 004c F0E7     		b	.L13
 318              	.L18:
 319 004e 00BF     		.align	2
 320              	.L17:
 321 0050 00000000 		.word	hi2c1
 322 0054 00000000 		.word	.LC5
 323 0058 00000000 		.word	acc_enabled
 324 005c 00000000 		.word	err_buf.1
 325 0060 28000000 		.word	.LC6
ARM GAS  /var/folders/t0/g2s8z9xd75s2k51g_zcxx3qc0000gn/T//cc9lNoQM.s 			page 9


 326              		.cfi_endproc
 327              	.LFE140:
 329              		.section	.rodata.BVAT_I2C_Init.str1.4,"aMS",%progbits,1
 330              		.align	2
 331              	.LC7:
 332 0000 50657266 		.ascii	"Performing I2C device checks (LIS3DH)...\015\012\000"
 332      6F726D69 
 332      6E672049 
 332      32432064 
 332      65766963 
 333 002b 00       		.align	2
 334              	.LC8:
 335 002c 4C495333 		.ascii	"LIS3DH Accelerometer configuration command sent.\015"
 335      44482041 
 335      6363656C 
 335      65726F6D 
 335      65746572 
 336 005d 0A00     		.ascii	"\012\000"
 337 005f 00       		.align	2
 338              	.LC9:
 339 0060 4C495333 		.ascii	"LIS3DH Accelerometer NOT configured due to I2C issu"
 339      44482041 
 339      6363656C 
 339      65726F6D 
 339      65746572 
 340 0093 652E0D0A 		.ascii	"e.\015\012\000"
 340      00
 341              		.section	.text.BVAT_I2C_Init,"ax",%progbits
 342              		.align	1
 343              		.global	BVAT_I2C_Init
 344              		.syntax unified
 345              		.thumb
 346              		.thumb_func
 348              	BVAT_I2C_Init:
 349              	.LFB138:
  41:Core/Src/i2c_handler/i2c_handler.c ****     bool device_is_ok;
 350              		.loc 1 41 26 is_stmt 1 view -0
 351              		.cfi_startproc
 352              		@ args = 0, pretend = 0, frame = 0
 353              		@ frame_needed = 0, uses_anonymous_args = 0
 354 0000 10B5     		push	{r4, lr}
 355              	.LCFI6:
 356              		.cfi_def_cfa_offset 8
 357              		.cfi_offset 4, -8
 358              		.cfi_offset 14, -4
  42:Core/Src/i2c_handler/i2c_handler.c ****     WriteUART_Blocking("Performing I2C device checks (LIS3DH)...\r\n");
 359              		.loc 1 42 5 view .LVU73
  43:Core/Src/i2c_handler/i2c_handler.c ****     device_is_ok = I2C_connectivity_check();
 360              		.loc 1 43 5 view .LVU74
 361 0002 0A48     		ldr	r0, .L23
 362 0004 FFF7FEFF 		bl	WriteUART_Blocking
 363              	.LVL24:
  44:Core/Src/i2c_handler/i2c_handler.c **** 
 364              		.loc 1 44 5 view .LVU75
  44:Core/Src/i2c_handler/i2c_handler.c **** 
 365              		.loc 1 44 20 is_stmt 0 view .LVU76
 366 0008 FFF7FEFF 		bl	I2C_connectivity_check
ARM GAS  /var/folders/t0/g2s8z9xd75s2k51g_zcxx3qc0000gn/T//cc9lNoQM.s 			page 10


 367              	.LVL25:
  46:Core/Src/i2c_handler/i2c_handler.c ****         I2C_ACC_Enable();
 368              		.loc 1 46 5 is_stmt 1 view .LVU77
  46:Core/Src/i2c_handler/i2c_handler.c ****         I2C_ACC_Enable();
 369              		.loc 1 46 8 is_stmt 0 view .LVU78
 370 000c 0446     		mov	r4, r0
 371 000e 48B1     		cbz	r0, .L20
  47:Core/Src/i2c_handler/i2c_handler.c ****         HAL_Delay(100);
 372              		.loc 1 47 9 is_stmt 1 view .LVU79
 373 0010 FFF7FEFF 		bl	I2C_ACC_Enable
 374              	.LVL26:
  48:Core/Src/i2c_handler/i2c_handler.c ****         WriteUART_Blocking("LIS3DH Accelerometer configuration command sent.\r\n");
 375              		.loc 1 48 9 view .LVU80
 376 0014 6420     		movs	r0, #100
 377 0016 FFF7FEFF 		bl	HAL_Delay
 378              	.LVL27:
  49:Core/Src/i2c_handler/i2c_handler.c ****     } else {
 379              		.loc 1 49 9 view .LVU81
 380 001a 0548     		ldr	r0, .L23+4
 381 001c FFF7FEFF 		bl	WriteUART_Blocking
 382              	.LVL28:
 383              	.L21:
  53:Core/Src/i2c_handler/i2c_handler.c **** }
 384              		.loc 1 53 5 view .LVU82
  54:Core/Src/i2c_handler/i2c_handler.c **** 
 385              		.loc 1 54 1 is_stmt 0 view .LVU83
 386 0020 2046     		mov	r0, r4
 387 0022 10BD     		pop	{r4, pc}
 388              	.LVL29:
 389              	.L20:
  51:Core/Src/i2c_handler/i2c_handler.c ****     }
 390              		.loc 1 51 9 is_stmt 1 view .LVU84
 391 0024 0348     		ldr	r0, .L23+8
 392              	.LVL30:
  51:Core/Src/i2c_handler/i2c_handler.c ****     }
 393              		.loc 1 51 9 is_stmt 0 view .LVU85
 394 0026 FFF7FEFF 		bl	WriteUART_Blocking
 395              	.LVL31:
 396 002a F9E7     		b	.L21
 397              	.L24:
 398              		.align	2
 399              	.L23:
 400 002c 00000000 		.word	.LC7
 401 0030 2C000000 		.word	.LC8
 402 0034 60000000 		.word	.LC9
 403              		.cfi_endproc
 404              	.LFE138:
 406              		.section	.rodata.readACC.str1.4,"aMS",%progbits,1
 407              		.align	2
 408              	.LC10:
 409 0000 4572726F 		.ascii	"Error reading I2C reg 0x%02X. Status: %d\015\012\000"
 409      72207265 
 409      6164696E 
 409      67204932 
 409      43207265 
 410              		.section	.text.readACC,"ax",%progbits
 411              		.align	1
ARM GAS  /var/folders/t0/g2s8z9xd75s2k51g_zcxx3qc0000gn/T//cc9lNoQM.s 			page 11


 412              		.global	readACC
 413              		.syntax unified
 414              		.thumb
 415              		.thumb_func
 417              	readACC:
 418              	.LVL32:
 419              	.LFB141:
  96:Core/Src/i2c_handler/i2c_handler.c **** 
  97:Core/Src/i2c_handler/i2c_handler.c **** u8 readACC(u8 reg) {
 420              		.loc 1 97 20 is_stmt 1 view -0
 421              		.cfi_startproc
 422              		@ args = 0, pretend = 0, frame = 8
 423              		@ frame_needed = 0, uses_anonymous_args = 0
 424              		.loc 1 97 20 is_stmt 0 view .LVU87
 425 0000 30B5     		push	{r4, r5, lr}
 426              	.LCFI7:
 427              		.cfi_def_cfa_offset 12
 428              		.cfi_offset 4, -12
 429              		.cfi_offset 5, -8
 430              		.cfi_offset 14, -4
 431 0002 87B0     		sub	sp, sp, #28
 432              	.LCFI8:
 433              		.cfi_def_cfa_offset 40
 434 0004 0446     		mov	r4, r0
  98:Core/Src/i2c_handler/i2c_handler.c ****     u8 value = 0;
 435              		.loc 1 98 5 is_stmt 1 view .LVU88
 436              		.loc 1 98 8 is_stmt 0 view .LVU89
 437 0006 0023     		movs	r3, #0
 438 0008 8DF81730 		strb	r3, [sp, #23]
  99:Core/Src/i2c_handler/i2c_handler.c ****     HAL_StatusTypeDef status = HAL_I2C_Mem_Read(&hi2c1,
 439              		.loc 1 99 5 is_stmt 1 view .LVU90
 440              		.loc 1 99 32 is_stmt 0 view .LVU91
 441 000c 4FF0FF33 		mov	r3, #-1
 442 0010 0293     		str	r3, [sp, #8]
 443 0012 0123     		movs	r3, #1
 444 0014 0193     		str	r3, [sp, #4]
 445 0016 0DF11702 		add	r2, sp, #23
 446 001a 0092     		str	r2, [sp]
 447 001c 0246     		mov	r2, r0
 448 001e 3021     		movs	r1, #48
 449 0020 0948     		ldr	r0, .L29
 450              	.LVL33:
 451              		.loc 1 99 32 view .LVU92
 452 0022 FFF7FEFF 		bl	HAL_I2C_Mem_Read
 453              	.LVL34:
 100:Core/Src/i2c_handler/i2c_handler.c ****                                                ACC_I2C_ADDR,
 101:Core/Src/i2c_handler/i2c_handler.c ****                                                reg,
 102:Core/Src/i2c_handler/i2c_handler.c ****                                                I2C_MEMADD_SIZE_8BIT,
 103:Core/Src/i2c_handler/i2c_handler.c ****                                                &value,
 104:Core/Src/i2c_handler/i2c_handler.c ****                                                1,
 105:Core/Src/i2c_handler/i2c_handler.c ****                                                HAL_MAX_DELAY);
 106:Core/Src/i2c_handler/i2c_handler.c ****     if (status != HAL_OK) {
 454              		.loc 1 106 5 is_stmt 1 view .LVU93
 455              		.loc 1 106 8 is_stmt 0 view .LVU94
 456 0026 18B9     		cbnz	r0, .L28
 457              	.LVL35:
 458              	.L26:
ARM GAS  /var/folders/t0/g2s8z9xd75s2k51g_zcxx3qc0000gn/T//cc9lNoQM.s 			page 12


 107:Core/Src/i2c_handler/i2c_handler.c ****         static char err_buf[64];
 108:Core/Src/i2c_handler/i2c_handler.c ****         sprintf(err_buf, "Error reading I2C reg 0x%02X. Status: %d\r\n", reg, status);
 109:Core/Src/i2c_handler/i2c_handler.c ****         WriteUART_Blocking(err_buf);
 110:Core/Src/i2c_handler/i2c_handler.c ****     }
 111:Core/Src/i2c_handler/i2c_handler.c ****     return value;
 459              		.loc 1 111 5 is_stmt 1 view .LVU95
 112:Core/Src/i2c_handler/i2c_handler.c **** }
 460              		.loc 1 112 1 is_stmt 0 view .LVU96
 461 0028 9DF81700 		ldrb	r0, [sp, #23]	@ zero_extendqisi2
 462 002c 07B0     		add	sp, sp, #28
 463              	.LCFI9:
 464              		.cfi_remember_state
 465              		.cfi_def_cfa_offset 12
 466              		@ sp needed
 467 002e 30BD     		pop	{r4, r5, pc}
 468              	.LVL36:
 469              	.L28:
 470              	.LCFI10:
 471              		.cfi_restore_state
 472              		.loc 1 112 1 view .LVU97
 473 0030 0346     		mov	r3, r0
 474              	.LBB3:
 107:Core/Src/i2c_handler/i2c_handler.c ****         static char err_buf[64];
 475              		.loc 1 107 9 is_stmt 1 view .LVU98
 108:Core/Src/i2c_handler/i2c_handler.c ****         WriteUART_Blocking(err_buf);
 476              		.loc 1 108 9 view .LVU99
 477 0032 064D     		ldr	r5, .L29+4
 478 0034 2246     		mov	r2, r4
 479 0036 0649     		ldr	r1, .L29+8
 480 0038 2846     		mov	r0, r5
 481              	.LVL37:
 108:Core/Src/i2c_handler/i2c_handler.c ****         WriteUART_Blocking(err_buf);
 482              		.loc 1 108 9 is_stmt 0 view .LVU100
 483 003a FFF7FEFF 		bl	sprintf
 484              	.LVL38:
 109:Core/Src/i2c_handler/i2c_handler.c ****     }
 485              		.loc 1 109 9 is_stmt 1 view .LVU101
 486 003e 2846     		mov	r0, r5
 487 0040 FFF7FEFF 		bl	WriteUART_Blocking
 488              	.LVL39:
 489 0044 F0E7     		b	.L26
 490              	.L30:
 491 0046 00BF     		.align	2
 492              	.L29:
 493 0048 00000000 		.word	hi2c1
 494 004c 00000000 		.word	err_buf.0
 495 0050 00000000 		.word	.LC10
 496              	.LBE3:
 497              		.cfi_endproc
 498              	.LFE141:
 500              		.section	.rodata.LIS3DH_Read_Accel_Data.str1.4,"aMS",%progbits,1
 501              		.align	2
 502              	.LC11:
 503 0000 4C495333 		.ascii	"LIS3DH I2C Read FAILED. Status: %d\015\012\000"
 503      44482049 
 503      32432052 
 503      65616420 
ARM GAS  /var/folders/t0/g2s8z9xd75s2k51g_zcxx3qc0000gn/T//cc9lNoQM.s 			page 13


 503      4641494C 
 504              		.section	.text.LIS3DH_Read_Accel_Data,"ax",%progbits
 505              		.align	1
 506              		.global	LIS3DH_Read_Accel_Data
 507              		.syntax unified
 508              		.thumb
 509              		.thumb_func
 511              	LIS3DH_Read_Accel_Data:
 512              	.LVL40:
 513              	.LFB142:
 113:Core/Src/i2c_handler/i2c_handler.c **** 
 114:Core/Src/i2c_handler/i2c_handler.c **** bool LIS3DH_Read_Accel_Data(float* x_g, float* y_g, float* z_g) {
 514              		.loc 1 114 65 view -0
 515              		.cfi_startproc
 516              		@ args = 0, pretend = 0, frame = 72
 517              		@ frame_needed = 0, uses_anonymous_args = 0
 518              		.loc 1 114 65 is_stmt 0 view .LVU103
 519 0000 70B5     		push	{r4, r5, r6, lr}
 520              	.LCFI11:
 521              		.cfi_def_cfa_offset 16
 522              		.cfi_offset 4, -16
 523              		.cfi_offset 5, -12
 524              		.cfi_offset 6, -8
 525              		.cfi_offset 14, -4
 526 0002 96B0     		sub	sp, sp, #88
 527              	.LCFI12:
 528              		.cfi_def_cfa_offset 104
 529 0004 0646     		mov	r6, r0
 530 0006 0D46     		mov	r5, r1
 531 0008 1446     		mov	r4, r2
 115:Core/Src/i2c_handler/i2c_handler.c ****     u8 data[6];
 532              		.loc 1 115 5 is_stmt 1 view .LVU104
 116:Core/Src/i2c_handler/i2c_handler.c ****     HAL_StatusTypeDef status;
 533              		.loc 1 116 5 view .LVU105
 117:Core/Src/i2c_handler/i2c_handler.c **** 
 118:Core/Src/i2c_handler/i2c_handler.c ****     status = HAL_I2C_Mem_Read(&hi2c1,
 534              		.loc 1 118 5 view .LVU106
 535              		.loc 1 118 14 is_stmt 0 view .LVU107
 536 000a 4FF47A73 		mov	r3, #1000
 537 000e 0293     		str	r3, [sp, #8]
 538 0010 0623     		movs	r3, #6
 539 0012 0193     		str	r3, [sp, #4]
 540 0014 14AB     		add	r3, sp, #80
 541 0016 0093     		str	r3, [sp]
 542 0018 0123     		movs	r3, #1
 543 001a A822     		movs	r2, #168
 544              	.LVL41:
 545              		.loc 1 118 14 view .LVU108
 546 001c 3021     		movs	r1, #48
 547              	.LVL42:
 548              		.loc 1 118 14 view .LVU109
 549 001e 2348     		ldr	r0, .L36
 550              	.LVL43:
 551              		.loc 1 118 14 view .LVU110
 552 0020 FFF7FEFF 		bl	HAL_I2C_Mem_Read
 553              	.LVL44:
 119:Core/Src/i2c_handler/i2c_handler.c ****                               ACC_I2C_ADDR,
ARM GAS  /var/folders/t0/g2s8z9xd75s2k51g_zcxx3qc0000gn/T//cc9lNoQM.s 			page 14


 120:Core/Src/i2c_handler/i2c_handler.c ****                               LIS3DH_DATA_START_MULTI_READ,
 121:Core/Src/i2c_handler/i2c_handler.c ****                               I2C_MEMADD_SIZE_8BIT,
 122:Core/Src/i2c_handler/i2c_handler.c ****                               data,
 123:Core/Src/i2c_handler/i2c_handler.c ****                               6,
 124:Core/Src/i2c_handler/i2c_handler.c ****                               1000);
 125:Core/Src/i2c_handler/i2c_handler.c **** 
 126:Core/Src/i2c_handler/i2c_handler.c ****     if (status != HAL_OK) {
 554              		.loc 1 126 5 is_stmt 1 view .LVU111
 555              		.loc 1 126 8 is_stmt 0 view .LVU112
 556 0024 B8BB     		cbnz	r0, .L35
 127:Core/Src/i2c_handler/i2c_handler.c ****         char err_msg[64];
 128:Core/Src/i2c_handler/i2c_handler.c ****         sprintf(err_msg, "LIS3DH I2C Read FAILED. Status: %d\r\n", status);
 129:Core/Src/i2c_handler/i2c_handler.c ****         WriteUART_Blocking(err_msg);
 130:Core/Src/i2c_handler/i2c_handler.c ****         return false;
 131:Core/Src/i2c_handler/i2c_handler.c ****     }
 132:Core/Src/i2c_handler/i2c_handler.c **** 
 133:Core/Src/i2c_handler/i2c_handler.c ****     int16_t raw_x = (int16_t)((data[1] << 8) | data[0]) >> 4;
 557              		.loc 1 133 5 is_stmt 1 view .LVU113
 558              		.loc 1 133 36 is_stmt 0 view .LVU114
 559 0026 9DF85120 		ldrb	r2, [sp, #81]	@ zero_extendqisi2
 560              		.loc 1 133 52 view .LVU115
 561 002a 9DF85030 		ldrb	r3, [sp, #80]	@ zero_extendqisi2
 562              		.loc 1 133 21 view .LVU116
 563 002e 43EA0223 		orr	r3, r3, r2, lsl #8
 564              		.loc 1 133 13 view .LVU117
 565 0032 43F30B13 		sbfx	r3, r3, #4, #12
 566 0036 1BB2     		sxth	r3, r3
 567 0038 07EE103A 		vmov	s14, r3	@ int
 568              	.LVL45:
 134:Core/Src/i2c_handler/i2c_handler.c ****     int16_t raw_y = (int16_t)((data[3] << 8) | data[2]) >> 4;
 569              		.loc 1 134 5 is_stmt 1 view .LVU118
 570              		.loc 1 134 36 is_stmt 0 view .LVU119
 571 003c 9DF85320 		ldrb	r2, [sp, #83]	@ zero_extendqisi2
 572              		.loc 1 134 52 view .LVU120
 573 0040 9DF85230 		ldrb	r3, [sp, #82]	@ zero_extendqisi2
 574              		.loc 1 134 21 view .LVU121
 575 0044 43EA0223 		orr	r3, r3, r2, lsl #8
 576              		.loc 1 134 13 view .LVU122
 577 0048 43F30B13 		sbfx	r3, r3, #4, #12
 578 004c 1BB2     		sxth	r3, r3
 579 004e 07EE903A 		vmov	s15, r3	@ int
 580              	.LVL46:
 135:Core/Src/i2c_handler/i2c_handler.c ****     int16_t raw_z = (int16_t)((data[5] << 8) | data[4]) >> 4;
 581              		.loc 1 135 5 is_stmt 1 view .LVU123
 582              		.loc 1 135 36 is_stmt 0 view .LVU124
 583 0052 9DF85520 		ldrb	r2, [sp, #85]	@ zero_extendqisi2
 584              		.loc 1 135 52 view .LVU125
 585 0056 9DF85430 		ldrb	r3, [sp, #84]	@ zero_extendqisi2
 586              		.loc 1 135 21 view .LVU126
 587 005a 43EA0223 		orr	r3, r3, r2, lsl #8
 588              		.loc 1 135 13 view .LVU127
 589 005e 43F30B13 		sbfx	r3, r3, #4, #12
 590 0062 1BB2     		sxth	r3, r3
 591              	.LVL47:
 136:Core/Src/i2c_handler/i2c_handler.c **** 
 137:Core/Src/i2c_handler/i2c_handler.c ****     *x_g = (float)raw_x / 1000.0f;
 592              		.loc 1 137 5 is_stmt 1 view .LVU128
ARM GAS  /var/folders/t0/g2s8z9xd75s2k51g_zcxx3qc0000gn/T//cc9lNoQM.s 			page 15


 593              		.loc 1 137 12 is_stmt 0 view .LVU129
 594 0064 B8EEC77A 		vcvt.f32.s32	s14, s14
 595              	.LVL48:
 596              		.loc 1 137 25 view .LVU130
 597 0068 DFED116A 		vldr.32	s13, .L36+4
 598 006c 87EE266A 		vdiv.f32	s12, s14, s13
 599              		.loc 1 137 10 view .LVU131
 600 0070 86ED006A 		vstr.32	s12, [r6]
 601              	.LVL49:
 138:Core/Src/i2c_handler/i2c_handler.c ****     *y_g = (float)raw_y / 1000.0f;
 602              		.loc 1 138 5 is_stmt 1 view .LVU132
 603              		.loc 1 138 12 is_stmt 0 view .LVU133
 604 0074 F8EEE77A 		vcvt.f32.s32	s15, s15
 605              	.LVL50:
 606              		.loc 1 138 25 view .LVU134
 607 0078 87EEA67A 		vdiv.f32	s14, s15, s13
 608              		.loc 1 138 10 view .LVU135
 609 007c 85ED007A 		vstr.32	s14, [r5]
 139:Core/Src/i2c_handler/i2c_handler.c ****     *z_g = (float)raw_z / 1000.0f;
 610              		.loc 1 139 5 is_stmt 1 view .LVU136
 611              		.loc 1 139 12 is_stmt 0 view .LVU137
 612 0080 07EE903A 		vmov	s15, r3	@ int
 613 0084 F8EEE77A 		vcvt.f32.s32	s15, s15
 614              		.loc 1 139 25 view .LVU138
 615 0088 87EEA67A 		vdiv.f32	s14, s15, s13
 616              		.loc 1 139 10 view .LVU139
 617 008c 84ED007A 		vstr.32	s14, [r4]
 140:Core/Src/i2c_handler/i2c_handler.c **** 
 141:Core/Src/i2c_handler/i2c_handler.c ****     // static char float_buf[128];
 142:Core/Src/i2c_handler/i2c_handler.c ****     // sprintf(float_buf, "DEBUG RAW: AccelX=%.3f Y=%.3f Z=%.3f\r\n", *x_g, *y_g, *z_g);
 143:Core/Src/i2c_handler/i2c_handler.c ****     // WriteUART_Blocking(float_buf);
 144:Core/Src/i2c_handler/i2c_handler.c **** 
 145:Core/Src/i2c_handler/i2c_handler.c ****     return true;
 618              		.loc 1 145 5 is_stmt 1 view .LVU140
 619              		.loc 1 145 12 is_stmt 0 view .LVU141
 620 0090 0120     		movs	r0, #1
 621              	.LVL51:
 622              	.L33:
 146:Core/Src/i2c_handler/i2c_handler.c **** }
 623              		.loc 1 146 1 view .LVU142
 624 0092 16B0     		add	sp, sp, #88
 625              	.LCFI13:
 626              		.cfi_remember_state
 627              		.cfi_def_cfa_offset 16
 628              		@ sp needed
 629 0094 70BD     		pop	{r4, r5, r6, pc}
 630              	.LVL52:
 631              	.L35:
 632              	.LCFI14:
 633              		.cfi_restore_state
 634              		.loc 1 146 1 view .LVU143
 635 0096 0246     		mov	r2, r0
 636              	.LBB4:
 127:Core/Src/i2c_handler/i2c_handler.c ****         sprintf(err_msg, "LIS3DH I2C Read FAILED. Status: %d\r\n", status);
 637              		.loc 1 127 9 is_stmt 1 view .LVU144
 128:Core/Src/i2c_handler/i2c_handler.c ****         WriteUART_Blocking(err_msg);
 638              		.loc 1 128 9 view .LVU145
ARM GAS  /var/folders/t0/g2s8z9xd75s2k51g_zcxx3qc0000gn/T//cc9lNoQM.s 			page 16


 639 0098 04AC     		add	r4, sp, #16
 640              	.LVL53:
 128:Core/Src/i2c_handler/i2c_handler.c ****         WriteUART_Blocking(err_msg);
 641              		.loc 1 128 9 is_stmt 0 view .LVU146
 642 009a 0649     		ldr	r1, .L36+8
 643 009c 2046     		mov	r0, r4
 644              	.LVL54:
 128:Core/Src/i2c_handler/i2c_handler.c ****         WriteUART_Blocking(err_msg);
 645              		.loc 1 128 9 view .LVU147
 646 009e FFF7FEFF 		bl	sprintf
 647              	.LVL55:
 129:Core/Src/i2c_handler/i2c_handler.c ****         return false;
 648              		.loc 1 129 9 is_stmt 1 view .LVU148
 649 00a2 2046     		mov	r0, r4
 650 00a4 FFF7FEFF 		bl	WriteUART_Blocking
 651              	.LVL56:
 130:Core/Src/i2c_handler/i2c_handler.c ****     }
 652              		.loc 1 130 9 view .LVU149
 130:Core/Src/i2c_handler/i2c_handler.c ****     }
 653              		.loc 1 130 16 is_stmt 0 view .LVU150
 654 00a8 0020     		movs	r0, #0
 655 00aa F2E7     		b	.L33
 656              	.L37:
 657              		.align	2
 658              	.L36:
 659 00ac 00000000 		.word	hi2c1
 660 00b0 00007A44 		.word	1148846080
 661 00b4 00000000 		.word	.LC11
 662              	.LBE4:
 663              		.cfi_endproc
 664              	.LFE142:
 666              		.section	.bss.err_buf.0,"aw",%nobits
 667              		.align	2
 670              	err_buf.0:
 671 0000 00000000 		.space	64
 671      00000000 
 671      00000000 
 671      00000000 
 671      00000000 
 672              		.section	.bss.err_buf.1,"aw",%nobits
 673              		.align	2
 676              	err_buf.1:
 677 0000 00000000 		.space	64
 677      00000000 
 677      00000000 
 677      00000000 
 677      00000000 
 678              		.section	.bss.msg_buffer.2,"aw",%nobits
 679              		.align	2
 682              	msg_buffer.2:
 683 0000 00000000 		.space	64
 683      00000000 
 683      00000000 
 683      00000000 
 683      00000000 
 684              		.global	rawData
 685              		.section	.bss.rawData,"aw",%nobits
ARM GAS  /var/folders/t0/g2s8z9xd75s2k51g_zcxx3qc0000gn/T//cc9lNoQM.s 			page 17


 686              		.align	2
 689              	rawData:
 690 0000 00000000 		.space	6
 690      0000
 691              		.global	acc_enabled
 692              		.section	.bss.acc_enabled,"aw",%nobits
 695              	acc_enabled:
 696 0000 00       		.space	1
 697              		.global	hi2c1
 698              		.section	.bss.hi2c1,"aw",%nobits
 699              		.align	2
 702              	hi2c1:
 703 0000 00000000 		.space	84
 703      00000000 
 703      00000000 
 703      00000000 
 703      00000000 
 704              		.text
 705              	.Letext0:
 706              		.file 2 "/opt/arm-gnu-toolchain/arm-none-eabi/include/machine/_default_types.h"
 707              		.file 3 "Drivers/CMSIS/Device/ST/STM32F4xx/Include/stm32f411xe.h"
 708              		.file 4 "/opt/arm-gnu-toolchain/arm-none-eabi/include/sys/_stdint.h"
 709              		.file 5 "Drivers/STM32F4xx_HAL_Driver/Inc/stm32f4xx_hal_def.h"
 710              		.file 6 "Drivers/STM32F4xx_HAL_Driver/Inc/stm32f4xx_hal_dma.h"
 711              		.file 7 "Drivers/STM32F4xx_HAL_Driver/Inc/stm32f4xx_hal_i2c.h"
 712              		.file 8 "Core/Src/i2c_handler/i2c_handler.h"
 713              		.file 9 "/opt/arm-gnu-toolchain/arm-none-eabi/include/stdio.h"
 714              		.file 10 "Drivers/STM32F4xx_HAL_Driver/Inc/stm32f4xx_hal.h"
 715              		.file 11 "Drivers/STM32F4xx_HAL_Driver/Inc/stm32f4xx_hal_cortex.h"
 716              		.file 12 "Core/Src/uart_handler/uart_handler.h"
 717              		.file 13 "Core/Src/library/aml_hal.h"
ARM GAS  /var/folders/t0/g2s8z9xd75s2k51g_zcxx3qc0000gn/T//cc9lNoQM.s 			page 18


DEFINED SYMBOLS
                            *ABS*:00000000 i2c_handler.c
/var/folders/t0/g2s8z9xd75s2k51g_zcxx3qc0000gn/T//cc9lNoQM.s:21     .rodata.MX_I2C1_Init.str1.4:00000000 $d
/var/folders/t0/g2s8z9xd75s2k51g_zcxx3qc0000gn/T//cc9lNoQM.s:32     .text.MX_I2C1_Init:00000000 $t
/var/folders/t0/g2s8z9xd75s2k51g_zcxx3qc0000gn/T//cc9lNoQM.s:38     .text.MX_I2C1_Init:00000000 MX_I2C1_Init
/var/folders/t0/g2s8z9xd75s2k51g_zcxx3qc0000gn/T//cc9lNoQM.s:130    .text.MX_I2C1_Init:00000060 $d
/var/folders/t0/g2s8z9xd75s2k51g_zcxx3qc0000gn/T//cc9lNoQM.s:702    .bss.hi2c1:00000000 hi2c1
/var/folders/t0/g2s8z9xd75s2k51g_zcxx3qc0000gn/T//cc9lNoQM.s:140    .rodata.I2C_connectivity_check.str1.4:00000000 $d
/var/folders/t0/g2s8z9xd75s2k51g_zcxx3qc0000gn/T//cc9lNoQM.s:147    .text.I2C_connectivity_check:00000000 $t
/var/folders/t0/g2s8z9xd75s2k51g_zcxx3qc0000gn/T//cc9lNoQM.s:153    .text.I2C_connectivity_check:00000000 I2C_connectivity_check
/var/folders/t0/g2s8z9xd75s2k51g_zcxx3qc0000gn/T//cc9lNoQM.s:215    .text.I2C_connectivity_check:00000030 $d
/var/folders/t0/g2s8z9xd75s2k51g_zcxx3qc0000gn/T//cc9lNoQM.s:682    .bss.msg_buffer.2:00000000 msg_buffer.2
/var/folders/t0/g2s8z9xd75s2k51g_zcxx3qc0000gn/T//cc9lNoQM.s:223    .rodata.I2C_ACC_Enable.str1.4:00000000 $d
/var/folders/t0/g2s8z9xd75s2k51g_zcxx3qc0000gn/T//cc9lNoQM.s:230    .text.I2C_ACC_Enable:00000000 $t
/var/folders/t0/g2s8z9xd75s2k51g_zcxx3qc0000gn/T//cc9lNoQM.s:236    .text.I2C_ACC_Enable:00000000 I2C_ACC_Enable
/var/folders/t0/g2s8z9xd75s2k51g_zcxx3qc0000gn/T//cc9lNoQM.s:321    .text.I2C_ACC_Enable:00000050 $d
/var/folders/t0/g2s8z9xd75s2k51g_zcxx3qc0000gn/T//cc9lNoQM.s:695    .bss.acc_enabled:00000000 acc_enabled
/var/folders/t0/g2s8z9xd75s2k51g_zcxx3qc0000gn/T//cc9lNoQM.s:676    .bss.err_buf.1:00000000 err_buf.1
/var/folders/t0/g2s8z9xd75s2k51g_zcxx3qc0000gn/T//cc9lNoQM.s:330    .rodata.BVAT_I2C_Init.str1.4:00000000 $d
/var/folders/t0/g2s8z9xd75s2k51g_zcxx3qc0000gn/T//cc9lNoQM.s:342    .text.BVAT_I2C_Init:00000000 $t
/var/folders/t0/g2s8z9xd75s2k51g_zcxx3qc0000gn/T//cc9lNoQM.s:348    .text.BVAT_I2C_Init:00000000 BVAT_I2C_Init
/var/folders/t0/g2s8z9xd75s2k51g_zcxx3qc0000gn/T//cc9lNoQM.s:400    .text.BVAT_I2C_Init:0000002c $d
/var/folders/t0/g2s8z9xd75s2k51g_zcxx3qc0000gn/T//cc9lNoQM.s:407    .rodata.readACC.str1.4:00000000 $d
/var/folders/t0/g2s8z9xd75s2k51g_zcxx3qc0000gn/T//cc9lNoQM.s:411    .text.readACC:00000000 $t
/var/folders/t0/g2s8z9xd75s2k51g_zcxx3qc0000gn/T//cc9lNoQM.s:417    .text.readACC:00000000 readACC
/var/folders/t0/g2s8z9xd75s2k51g_zcxx3qc0000gn/T//cc9lNoQM.s:493    .text.readACC:00000048 $d
/var/folders/t0/g2s8z9xd75s2k51g_zcxx3qc0000gn/T//cc9lNoQM.s:670    .bss.err_buf.0:00000000 err_buf.0
/var/folders/t0/g2s8z9xd75s2k51g_zcxx3qc0000gn/T//cc9lNoQM.s:501    .rodata.LIS3DH_Read_Accel_Data.str1.4:00000000 $d
/var/folders/t0/g2s8z9xd75s2k51g_zcxx3qc0000gn/T//cc9lNoQM.s:505    .text.LIS3DH_Read_Accel_Data:00000000 $t
/var/folders/t0/g2s8z9xd75s2k51g_zcxx3qc0000gn/T//cc9lNoQM.s:511    .text.LIS3DH_Read_Accel_Data:00000000 LIS3DH_Read_Accel_Data
/var/folders/t0/g2s8z9xd75s2k51g_zcxx3qc0000gn/T//cc9lNoQM.s:659    .text.LIS3DH_Read_Accel_Data:000000ac $d
/var/folders/t0/g2s8z9xd75s2k51g_zcxx3qc0000gn/T//cc9lNoQM.s:667    .bss.err_buf.0:00000000 $d
/var/folders/t0/g2s8z9xd75s2k51g_zcxx3qc0000gn/T//cc9lNoQM.s:673    .bss.err_buf.1:00000000 $d
/var/folders/t0/g2s8z9xd75s2k51g_zcxx3qc0000gn/T//cc9lNoQM.s:679    .bss.msg_buffer.2:00000000 $d
/var/folders/t0/g2s8z9xd75s2k51g_zcxx3qc0000gn/T//cc9lNoQM.s:689    .bss.rawData:00000000 rawData
/var/folders/t0/g2s8z9xd75s2k51g_zcxx3qc0000gn/T//cc9lNoQM.s:686    .bss.rawData:00000000 $d
/var/folders/t0/g2s8z9xd75s2k51g_zcxx3qc0000gn/T//cc9lNoQM.s:696    .bss.acc_enabled:00000000 $d
/var/folders/t0/g2s8z9xd75s2k51g_zcxx3qc0000gn/T//cc9lNoQM.s:699    .bss.hi2c1:00000000 $d

UNDEFINED SYMBOLS
WriteUART_Blocking
HAL_I2C_Init
HAL_NVIC_SetPriority
HAL_NVIC_EnableIRQ
Error_Handler
HAL_I2C_IsDeviceReady
sprintf
HAL_I2C_Mem_Write
HAL_Delay
HAL_I2C_Mem_Read
