ARM GAS  /var/folders/25/vg8ydb454_z3v37m53jqj5280000gn/T//ccgp8D1B.s 			page 1


   1              		.cpu cortex-m4
   2              		.arch armv7e-m
   3              		.fpu fpv4-sp-d16
   4              		.eabi_attribute 27, 1
   5              		.eabi_attribute 28, 1
   6              		.eabi_attribute 20, 1
   7              		.eabi_attribute 21, 1
   8              		.eabi_attribute 23, 3
   9              		.eabi_attribute 24, 1
  10              		.eabi_attribute 25, 1
  11              		.eabi_attribute 26, 1
  12              		.eabi_attribute 30, 1
  13              		.eabi_attribute 34, 1
  14              		.eabi_attribute 18, 4
  15              		.file	"i2c_handler.c"
  16              		.text
  17              	.Ltext0:
  18              		.cfi_sections	.debug_frame
  19              		.file 1 "Core/Src/i2c_handler/i2c_handler.c"
  20              		.section	.text.MX_I2C1_Init,"ax",%progbits
  21              		.align	1
  22              		.global	MX_I2C1_Init
  23              		.syntax unified
  24              		.thumb
  25              		.thumb_func
  27              	MX_I2C1_Init:
  28              	.LFB134:
   1:Core/Src/i2c_handler/i2c_handler.c **** #include "i2c_handler.h"
   2:Core/Src/i2c_handler/i2c_handler.c **** 
   3:Core/Src/i2c_handler/i2c_handler.c **** I2C_HandleTypeDef hi2c1;
   4:Core/Src/i2c_handler/i2c_handler.c **** 
   5:Core/Src/i2c_handler/i2c_handler.c **** volatile bool acc_enabled = false;
   6:Core/Src/i2c_handler/i2c_handler.c **** u8 rawData[6];
   7:Core/Src/i2c_handler/i2c_handler.c **** 
   8:Core/Src/i2c_handler/i2c_handler.c **** void MX_I2C1_Init(void) {
  29              		.loc 1 8 25 view -0
  30              		.cfi_startproc
  31              		@ args = 0, pretend = 0, frame = 0
  32              		@ frame_needed = 0, uses_anonymous_args = 0
  33 0000 08B5     		push	{r3, lr}
  34              	.LCFI0:
  35              		.cfi_def_cfa_offset 8
  36              		.cfi_offset 3, -8
  37              		.cfi_offset 14, -4
   9:Core/Src/i2c_handler/i2c_handler.c ****     hi2c1.Instance = I2C1;
  38              		.loc 1 9 5 view .LVU1
  39              		.loc 1 9 20 is_stmt 0 view .LVU2
  40 0002 1348     		ldr	r0, .L5
  41 0004 134B     		ldr	r3, .L5+4
  42 0006 0360     		str	r3, [r0]
  10:Core/Src/i2c_handler/i2c_handler.c ****     hi2c1.Init.ClockSpeed = 100000;
  43              		.loc 1 10 5 is_stmt 1 view .LVU3
  44              		.loc 1 10 27 is_stmt 0 view .LVU4
  45 0008 134B     		ldr	r3, .L5+8
  46 000a 4360     		str	r3, [r0, #4]
  11:Core/Src/i2c_handler/i2c_handler.c ****     hi2c1.Init.DutyCycle = I2C_DUTYCYCLE_2;
  47              		.loc 1 11 5 is_stmt 1 view .LVU5
ARM GAS  /var/folders/25/vg8ydb454_z3v37m53jqj5280000gn/T//ccgp8D1B.s 			page 2


  48              		.loc 1 11 26 is_stmt 0 view .LVU6
  49 000c 0023     		movs	r3, #0
  50 000e 8360     		str	r3, [r0, #8]
  12:Core/Src/i2c_handler/i2c_handler.c ****     hi2c1.Init.OwnAddress1 = 0;
  51              		.loc 1 12 5 is_stmt 1 view .LVU7
  52              		.loc 1 12 28 is_stmt 0 view .LVU8
  53 0010 C360     		str	r3, [r0, #12]
  13:Core/Src/i2c_handler/i2c_handler.c ****     hi2c1.Init.AddressingMode = I2C_ADDRESSINGMODE_7BIT;
  54              		.loc 1 13 5 is_stmt 1 view .LVU9
  55              		.loc 1 13 31 is_stmt 0 view .LVU10
  56 0012 4FF48042 		mov	r2, #16384
  57 0016 0261     		str	r2, [r0, #16]
  14:Core/Src/i2c_handler/i2c_handler.c ****     hi2c1.Init.DualAddressMode = I2C_DUALADDRESS_DISABLE;
  58              		.loc 1 14 5 is_stmt 1 view .LVU11
  59              		.loc 1 14 32 is_stmt 0 view .LVU12
  60 0018 4361     		str	r3, [r0, #20]
  15:Core/Src/i2c_handler/i2c_handler.c ****     hi2c1.Init.OwnAddress2 = 0;
  61              		.loc 1 15 5 is_stmt 1 view .LVU13
  62              		.loc 1 15 28 is_stmt 0 view .LVU14
  63 001a 8361     		str	r3, [r0, #24]
  16:Core/Src/i2c_handler/i2c_handler.c ****     hi2c1.Init.GeneralCallMode = I2C_GENERALCALL_DISABLE;
  64              		.loc 1 16 5 is_stmt 1 view .LVU15
  65              		.loc 1 16 32 is_stmt 0 view .LVU16
  66 001c C361     		str	r3, [r0, #28]
  17:Core/Src/i2c_handler/i2c_handler.c ****     hi2c1.Init.NoStretchMode = I2C_NOSTRETCH_DISABLE;
  67              		.loc 1 17 5 is_stmt 1 view .LVU17
  68              		.loc 1 17 30 is_stmt 0 view .LVU18
  69 001e 0362     		str	r3, [r0, #32]
  18:Core/Src/i2c_handler/i2c_handler.c **** 
  19:Core/Src/i2c_handler/i2c_handler.c ****     if (HAL_I2C_Init(&hi2c1) != HAL_OK) {
  70              		.loc 1 19 5 is_stmt 1 view .LVU19
  71              		.loc 1 19 9 is_stmt 0 view .LVU20
  72 0020 FFF7FEFF 		bl	HAL_I2C_Init
  73              	.LVL0:
  74              		.loc 1 19 8 discriminator 1 view .LVU21
  75 0024 80B9     		cbnz	r0, .L4
  76              	.L2:
  20:Core/Src/i2c_handler/i2c_handler.c ****         Error_Handler();
  21:Core/Src/i2c_handler/i2c_handler.c ****     }
  22:Core/Src/i2c_handler/i2c_handler.c **** 
  23:Core/Src/i2c_handler/i2c_handler.c ****     // Enable and set I2C1 Event Interrupt to priority 0
  24:Core/Src/i2c_handler/i2c_handler.c ****     HAL_NVIC_SetPriority(I2C1_EV_IRQn, 0, 0);
  77              		.loc 1 24 5 is_stmt 1 view .LVU22
  78 0026 0022     		movs	r2, #0
  79 0028 1146     		mov	r1, r2
  80 002a 1F20     		movs	r0, #31
  81 002c FFF7FEFF 		bl	HAL_NVIC_SetPriority
  82              	.LVL1:
  25:Core/Src/i2c_handler/i2c_handler.c ****     HAL_NVIC_EnableIRQ(I2C1_EV_IRQn);
  83              		.loc 1 25 5 view .LVU23
  84 0030 1F20     		movs	r0, #31
  85 0032 FFF7FEFF 		bl	HAL_NVIC_EnableIRQ
  86              	.LVL2:
  26:Core/Src/i2c_handler/i2c_handler.c **** 
  27:Core/Src/i2c_handler/i2c_handler.c ****     // Enable and set I2C1 Error Interrupt to priority 1
  28:Core/Src/i2c_handler/i2c_handler.c ****     HAL_NVIC_SetPriority(I2C1_ER_IRQn, 0, 1);
  87              		.loc 1 28 5 view .LVU24
ARM GAS  /var/folders/25/vg8ydb454_z3v37m53jqj5280000gn/T//ccgp8D1B.s 			page 3


  88 0036 0122     		movs	r2, #1
  89 0038 0021     		movs	r1, #0
  90 003a 2020     		movs	r0, #32
  91 003c FFF7FEFF 		bl	HAL_NVIC_SetPriority
  92              	.LVL3:
  29:Core/Src/i2c_handler/i2c_handler.c ****     HAL_NVIC_EnableIRQ(I2C1_ER_IRQn);
  93              		.loc 1 29 5 view .LVU25
  94 0040 2020     		movs	r0, #32
  95 0042 FFF7FEFF 		bl	HAL_NVIC_EnableIRQ
  96              	.LVL4:
  30:Core/Src/i2c_handler/i2c_handler.c **** }
  97              		.loc 1 30 1 is_stmt 0 view .LVU26
  98 0046 08BD     		pop	{r3, pc}
  99              	.L4:
  20:Core/Src/i2c_handler/i2c_handler.c ****     }
 100              		.loc 1 20 9 is_stmt 1 view .LVU27
 101 0048 FFF7FEFF 		bl	Error_Handler
 102              	.LVL5:
 103 004c EBE7     		b	.L2
 104              	.L6:
 105 004e 00BF     		.align	2
 106              	.L5:
 107 0050 00000000 		.word	hi2c1
 108 0054 00540040 		.word	1073763328
 109 0058 A0860100 		.word	100000
 110              		.cfi_endproc
 111              	.LFE134:
 113              		.section	.rodata.I2C_connectivity_check.str1.4,"aMS",%progbits,1
 114              		.align	2
 115              	.LC0:
 116 0000 49324320 		.ascii	"I2C device is ready.\012\000"
 116      64657669 
 116      63652069 
 116      73207265 
 116      6164792E 
 117 0016 0000     		.align	2
 118              	.LC1:
 119 0018 49324320 		.ascii	"I2C device not found.\012\000"
 119      64657669 
 119      6365206E 
 119      6F742066 
 119      6F756E64 
 120              		.section	.text.I2C_connectivity_check,"ax",%progbits
 121              		.align	1
 122              		.global	I2C_connectivity_check
 123              		.syntax unified
 124              		.thumb
 125              		.thumb_func
 127              	I2C_connectivity_check:
 128              	.LFB135:
  31:Core/Src/i2c_handler/i2c_handler.c **** 
  32:Core/Src/i2c_handler/i2c_handler.c **** // void I2C_connectivity_check (void) {
  33:Core/Src/i2c_handler/i2c_handler.c **** //     HAL_StatusTypeDef status;
  34:Core/Src/i2c_handler/i2c_handler.c **** //     u8 deviceADDR = 0x18 << 1;      // LIS3DH address shifted
  35:Core/Src/i2c_handler/i2c_handler.c **** 
  36:Core/Src/i2c_handler/i2c_handler.c **** //     status = HAL_I2C_IsDeviceReady(&hi2c1, deviceADDR, 3, 1000);
  37:Core/Src/i2c_handler/i2c_handler.c **** 
ARM GAS  /var/folders/25/vg8ydb454_z3v37m53jqj5280000gn/T//ccgp8D1B.s 			page 4


  38:Core/Src/i2c_handler/i2c_handler.c **** //     if (status == HAL_OK) {
  39:Core/Src/i2c_handler/i2c_handler.c **** //         WriteUART("I2C device is ready.\n");
  40:Core/Src/i2c_handler/i2c_handler.c **** //     } else {
  41:Core/Src/i2c_handler/i2c_handler.c **** //         WriteUART("I2C device not found.\n");
  42:Core/Src/i2c_handler/i2c_handler.c **** //     }
  43:Core/Src/i2c_handler/i2c_handler.c **** // }
  44:Core/Src/i2c_handler/i2c_handler.c **** 
  45:Core/Src/i2c_handler/i2c_handler.c **** bool I2C_connectivity_check (void) {
 129              		.loc 1 45 36 view -0
 130              		.cfi_startproc
 131              		@ args = 0, pretend = 0, frame = 0
 132              		@ frame_needed = 0, uses_anonymous_args = 0
 133 0000 08B5     		push	{r3, lr}
 134              	.LCFI1:
 135              		.cfi_def_cfa_offset 8
 136              		.cfi_offset 3, -8
 137              		.cfi_offset 14, -4
  46:Core/Src/i2c_handler/i2c_handler.c ****     HAL_StatusTypeDef status;
 138              		.loc 1 46 5 view .LVU29
  47:Core/Src/i2c_handler/i2c_handler.c ****     u8 deviceADDR = 0x18 << 1; // LIS3DH address shifted
 139              		.loc 1 47 5 view .LVU30
 140              	.LVL6:
  48:Core/Src/i2c_handler/i2c_handler.c **** 
  49:Core/Src/i2c_handler/i2c_handler.c ****     status = HAL_I2C_IsDeviceReady(&hi2c1, deviceADDR, 3, 1000);
 141              		.loc 1 49 5 view .LVU31
 142              		.loc 1 49 14 is_stmt 0 view .LVU32
 143 0002 4FF47A73 		mov	r3, #1000
 144 0006 0322     		movs	r2, #3
 145 0008 3021     		movs	r1, #48
 146 000a 0748     		ldr	r0, .L11
 147 000c FFF7FEFF 		bl	HAL_I2C_IsDeviceReady
 148              	.LVL7:
  50:Core/Src/i2c_handler/i2c_handler.c **** 
  51:Core/Src/i2c_handler/i2c_handler.c ****     if (status == HAL_OK) {
 149              		.loc 1 51 5 is_stmt 1 view .LVU33
 150              		.loc 1 51 8 is_stmt 0 view .LVU34
 151 0010 20B9     		cbnz	r0, .L8
 152              	.LBB2:
  52:Core/Src/i2c_handler/i2c_handler.c ****         WriteUART("I2C device is ready.\n");
 153              		.loc 1 52 9 is_stmt 1 view .LVU35
 154 0012 0648     		ldr	r0, .L11+4
 155              	.LVL8:
 156              		.loc 1 52 9 is_stmt 0 view .LVU36
 157 0014 FFF7FEFF 		bl	WriteUART
 158              	.LVL9:
  53:Core/Src/i2c_handler/i2c_handler.c ****         return true; // Device is ready
 159              		.loc 1 53 9 is_stmt 1 view .LVU37
 160              		.loc 1 53 16 is_stmt 0 view .LVU38
 161 0018 0120     		movs	r0, #1
 162              	.L9:
 163              	.LBE2:
  54:Core/Src/i2c_handler/i2c_handler.c ****     } else {
  55:Core/Src/i2c_handler/i2c_handler.c ****         WriteUART("I2C device not found.\n");
  56:Core/Src/i2c_handler/i2c_handler.c ****         return false; // Device not found
  57:Core/Src/i2c_handler/i2c_handler.c ****     }
  58:Core/Src/i2c_handler/i2c_handler.c **** }
 164              		.loc 1 58 1 view .LVU39
ARM GAS  /var/folders/25/vg8ydb454_z3v37m53jqj5280000gn/T//ccgp8D1B.s 			page 5


 165 001a 08BD     		pop	{r3, pc}
 166              	.LVL10:
 167              	.L8:
 168              	.LBB3:
  55:Core/Src/i2c_handler/i2c_handler.c ****         return false; // Device not found
 169              		.loc 1 55 9 is_stmt 1 view .LVU40
 170 001c 0448     		ldr	r0, .L11+8
 171              	.LVL11:
  55:Core/Src/i2c_handler/i2c_handler.c ****         return false; // Device not found
 172              		.loc 1 55 9 is_stmt 0 view .LVU41
 173 001e FFF7FEFF 		bl	WriteUART
 174              	.LVL12:
  56:Core/Src/i2c_handler/i2c_handler.c ****     }
 175              		.loc 1 56 9 is_stmt 1 view .LVU42
  56:Core/Src/i2c_handler/i2c_handler.c ****     }
 176              		.loc 1 56 16 is_stmt 0 view .LVU43
 177 0022 0020     		movs	r0, #0
 178 0024 F9E7     		b	.L9
 179              	.L12:
 180 0026 00BF     		.align	2
 181              	.L11:
 182 0028 00000000 		.word	hi2c1
 183 002c 00000000 		.word	.LC0
 184 0030 18000000 		.word	.LC1
 185              	.LBE3:
 186              		.cfi_endproc
 187              	.LFE135:
 189              		.section	.text.I2C_ACC_Enable,"ax",%progbits
 190              		.align	1
 191              		.global	I2C_ACC_Enable
 192              		.syntax unified
 193              		.thumb
 194              		.thumb_func
 196              	I2C_ACC_Enable:
 197              	.LFB136:
  59:Core/Src/i2c_handler/i2c_handler.c **** 
  60:Core/Src/i2c_handler/i2c_handler.c **** /**
  61:Core/Src/i2c_handler/i2c_handler.c ****  * Accelerometer I2C address and register definitions
  62:Core/Src/i2c_handler/i2c_handler.c ****  */
  63:Core/Src/i2c_handler/i2c_handler.c **** 
  64:Core/Src/i2c_handler/i2c_handler.c ****  // TODO: Need to work with I2C Mem Read/Write with I2C configurations
  65:Core/Src/i2c_handler/i2c_handler.c **** void I2C_ACC_Enable(void) {
 198              		.loc 1 65 27 is_stmt 1 view -0
 199              		.cfi_startproc
 200              		@ args = 0, pretend = 0, frame = 0
 201              		@ frame_needed = 0, uses_anonymous_args = 0
 202 0000 00B5     		push	{lr}
 203              	.LCFI2:
 204              		.cfi_def_cfa_offset 4
 205              		.cfi_offset 14, -4
 206 0002 83B0     		sub	sp, sp, #12
 207              	.LCFI3:
 208              		.cfi_def_cfa_offset 16
  66:Core/Src/i2c_handler/i2c_handler.c ****     static u8 ctrl1 = ACC_CTRL1_VALUE;
 209              		.loc 1 66 5 view .LVU45
  67:Core/Src/i2c_handler/i2c_handler.c **** 
  68:Core/Src/i2c_handler/i2c_handler.c ****     HAL_I2C_Mem_Write_IT(&hi2c1,
ARM GAS  /var/folders/25/vg8ydb454_z3v37m53jqj5280000gn/T//ccgp8D1B.s 			page 6


 210              		.loc 1 68 5 view .LVU46
 211 0004 0123     		movs	r3, #1
 212 0006 0193     		str	r3, [sp, #4]
 213 0008 044A     		ldr	r2, .L15
 214 000a 0092     		str	r2, [sp]
 215 000c 2022     		movs	r2, #32
 216 000e 3021     		movs	r1, #48
 217 0010 0348     		ldr	r0, .L15+4
 218 0012 FFF7FEFF 		bl	HAL_I2C_Mem_Write_IT
 219              	.LVL13:
  69:Core/Src/i2c_handler/i2c_handler.c ****                          ACC_I2C_ADDR,
  70:Core/Src/i2c_handler/i2c_handler.c ****                          ACC_CTRL1_REG,
  71:Core/Src/i2c_handler/i2c_handler.c ****                          I2C_MEMADD_SIZE_8BIT,
  72:Core/Src/i2c_handler/i2c_handler.c ****                          &ctrl1,
  73:Core/Src/i2c_handler/i2c_handler.c ****                          1);
  74:Core/Src/i2c_handler/i2c_handler.c **** }
 220              		.loc 1 74 1 is_stmt 0 view .LVU47
 221 0016 03B0     		add	sp, sp, #12
 222              	.LCFI4:
 223              		.cfi_def_cfa_offset 4
 224              		@ sp needed
 225 0018 5DF804FB 		ldr	pc, [sp], #4
 226              	.L16:
 227              		.align	2
 228              	.L15:
 229 001c 00000000 		.word	ctrl1.0
 230 0020 00000000 		.word	hi2c1
 231              		.cfi_endproc
 232              	.LFE136:
 234              		.section	.text.I2C_Read_ACC,"ax",%progbits
 235              		.align	1
 236              		.global	I2C_Read_ACC
 237              		.syntax unified
 238              		.thumb
 239              		.thumb_func
 241              	I2C_Read_ACC:
 242              	.LFB137:
  75:Core/Src/i2c_handler/i2c_handler.c **** 
  76:Core/Src/i2c_handler/i2c_handler.c **** void I2C_Read_ACC(void) {
 243              		.loc 1 76 25 is_stmt 1 view -0
 244              		.cfi_startproc
 245              		@ args = 0, pretend = 0, frame = 0
 246              		@ frame_needed = 0, uses_anonymous_args = 0
 247 0000 00B5     		push	{lr}
 248              	.LCFI5:
 249              		.cfi_def_cfa_offset 4
 250              		.cfi_offset 14, -4
 251 0002 83B0     		sub	sp, sp, #12
 252              	.LCFI6:
 253              		.cfi_def_cfa_offset 16
  77:Core/Src/i2c_handler/i2c_handler.c ****     HAL_I2C_Mem_Read_IT(&hi2c1,
 254              		.loc 1 77 5 view .LVU49
 255 0004 0623     		movs	r3, #6
 256 0006 0193     		str	r3, [sp, #4]
 257 0008 054B     		ldr	r3, .L19
 258 000a 0093     		str	r3, [sp]
 259 000c 0123     		movs	r3, #1
ARM GAS  /var/folders/25/vg8ydb454_z3v37m53jqj5280000gn/T//ccgp8D1B.s 			page 7


 260 000e A822     		movs	r2, #168
 261 0010 3021     		movs	r1, #48
 262 0012 0448     		ldr	r0, .L19+4
 263 0014 FFF7FEFF 		bl	HAL_I2C_Mem_Read_IT
 264              	.LVL14:
  78:Core/Src/i2c_handler/i2c_handler.c ****                         ACC_I2C_ADDR,
  79:Core/Src/i2c_handler/i2c_handler.c ****                         ACC_DATA_START,
  80:Core/Src/i2c_handler/i2c_handler.c ****                         I2C_MEMADD_SIZE_8BIT,
  81:Core/Src/i2c_handler/i2c_handler.c ****                         rawData,
  82:Core/Src/i2c_handler/i2c_handler.c ****                         6);
  83:Core/Src/i2c_handler/i2c_handler.c **** }
 265              		.loc 1 83 1 is_stmt 0 view .LVU50
 266 0018 03B0     		add	sp, sp, #12
 267              	.LCFI7:
 268              		.cfi_def_cfa_offset 4
 269              		@ sp needed
 270 001a 5DF804FB 		ldr	pc, [sp], #4
 271              	.L20:
 272 001e 00BF     		.align	2
 273              	.L19:
 274 0020 00000000 		.word	rawData
 275 0024 00000000 		.word	hi2c1
 276              		.cfi_endproc
 277              	.LFE137:
 279              		.section	.text.readACC,"ax",%progbits
 280              		.align	1
 281              		.global	readACC
 282              		.syntax unified
 283              		.thumb
 284              		.thumb_func
 286              	readACC:
 287              	.LVL15:
 288              	.LFB138:
  84:Core/Src/i2c_handler/i2c_handler.c **** 
  85:Core/Src/i2c_handler/i2c_handler.c **** u8 readACC(u8 reg) {
 289              		.loc 1 85 20 is_stmt 1 view -0
 290              		.cfi_startproc
 291              		@ args = 0, pretend = 0, frame = 8
 292              		@ frame_needed = 0, uses_anonymous_args = 0
 293              		.loc 1 85 20 is_stmt 0 view .LVU52
 294 0000 00B5     		push	{lr}
 295              	.LCFI8:
 296              		.cfi_def_cfa_offset 4
 297              		.cfi_offset 14, -4
 298 0002 87B0     		sub	sp, sp, #28
 299              	.LCFI9:
 300              		.cfi_def_cfa_offset 32
 301 0004 0246     		mov	r2, r0
  86:Core/Src/i2c_handler/i2c_handler.c ****     u8 value = 0;
 302              		.loc 1 86 5 is_stmt 1 view .LVU53
 303              		.loc 1 86 8 is_stmt 0 view .LVU54
 304 0006 0023     		movs	r3, #0
 305 0008 8DF81730 		strb	r3, [sp, #23]
  87:Core/Src/i2c_handler/i2c_handler.c ****     HAL_I2C_Mem_Read(&hi2c1, ACC_I2C_ADDR, reg, I2C_MEMADD_SIZE_8BIT, &value, 1, HAL_MAX_DELAY);
 306              		.loc 1 87 5 is_stmt 1 view .LVU55
 307 000c 4FF0FF33 		mov	r3, #-1
 308 0010 0293     		str	r3, [sp, #8]
ARM GAS  /var/folders/25/vg8ydb454_z3v37m53jqj5280000gn/T//ccgp8D1B.s 			page 8


 309 0012 0123     		movs	r3, #1
 310 0014 0193     		str	r3, [sp, #4]
 311 0016 0DF11701 		add	r1, sp, #23
 312 001a 0091     		str	r1, [sp]
 313 001c 3021     		movs	r1, #48
 314 001e 0448     		ldr	r0, .L23
 315              	.LVL16:
 316              		.loc 1 87 5 is_stmt 0 view .LVU56
 317 0020 FFF7FEFF 		bl	HAL_I2C_Mem_Read
 318              	.LVL17:
  88:Core/Src/i2c_handler/i2c_handler.c ****     return value;
 319              		.loc 1 88 5 is_stmt 1 view .LVU57
  89:Core/Src/i2c_handler/i2c_handler.c **** }
 320              		.loc 1 89 1 is_stmt 0 view .LVU58
 321 0024 9DF81700 		ldrb	r0, [sp, #23]	@ zero_extendqisi2
 322 0028 07B0     		add	sp, sp, #28
 323              	.LCFI10:
 324              		.cfi_def_cfa_offset 4
 325              		@ sp needed
 326 002a 5DF804FB 		ldr	pc, [sp], #4
 327              	.L24:
 328 002e 00BF     		.align	2
 329              	.L23:
 330 0030 00000000 		.word	hi2c1
 331              		.cfi_endproc
 332              	.LFE138:
 334              		.section	.text.HAL_I2C_MemTxCpltCallback,"ax",%progbits
 335              		.align	1
 336              		.global	HAL_I2C_MemTxCpltCallback
 337              		.syntax unified
 338              		.thumb
 339              		.thumb_func
 341              	HAL_I2C_MemTxCpltCallback:
 342              	.LVL18:
 343              	.LFB139:
  90:Core/Src/i2c_handler/i2c_handler.c **** 
  91:Core/Src/i2c_handler/i2c_handler.c **** // Write complete callback
  92:Core/Src/i2c_handler/i2c_handler.c **** void HAL_I2C_MemTxCpltCallback(I2C_HandleTypeDef *hi2c) {
 344              		.loc 1 92 57 is_stmt 1 view -0
 345              		.cfi_startproc
 346              		@ args = 0, pretend = 0, frame = 0
 347              		@ frame_needed = 0, uses_anonymous_args = 0
 348              		@ link register save eliminated.
  93:Core/Src/i2c_handler/i2c_handler.c ****     if (hi2c->Instance == I2C1) {
 349              		.loc 1 93 5 view .LVU60
  94:Core/Src/i2c_handler/i2c_handler.c ****         // acc_enabled = true;
  95:Core/Src/i2c_handler/i2c_handler.c ****     }
 350              		.loc 1 95 5 view .LVU61
  96:Core/Src/i2c_handler/i2c_handler.c **** }
 351              		.loc 1 96 1 is_stmt 0 view .LVU62
 352 0000 7047     		bx	lr
 353              		.cfi_endproc
 354              	.LFE139:
 356              		.section	.text.HAL_I2C_MemRxCpltCallback,"ax",%progbits
 357              		.align	1
 358              		.global	HAL_I2C_MemRxCpltCallback
 359              		.syntax unified
ARM GAS  /var/folders/25/vg8ydb454_z3v37m53jqj5280000gn/T//ccgp8D1B.s 			page 9


 360              		.thumb
 361              		.thumb_func
 363              	HAL_I2C_MemRxCpltCallback:
 364              	.LVL19:
 365              	.LFB140:
  97:Core/Src/i2c_handler/i2c_handler.c **** 
  98:Core/Src/i2c_handler/i2c_handler.c **** //* Will be called when the I2C memory read operation is complete
  99:Core/Src/i2c_handler/i2c_handler.c **** //* This callback is triggered when the I2C memory read operation is complete
 100:Core/Src/i2c_handler/i2c_handler.c **** void HAL_I2C_MemRxCpltCallback(I2C_HandleTypeDef *hi2c)
 101:Core/Src/i2c_handler/i2c_handler.c **** {
 366              		.loc 1 101 1 is_stmt 1 view -0
 367              		.cfi_startproc
 368              		@ args = 0, pretend = 0, frame = 0
 369              		@ frame_needed = 0, uses_anonymous_args = 0
 370              		@ link register save eliminated.
 102:Core/Src/i2c_handler/i2c_handler.c ****     if (hi2c->Instance == I2C1) {
 371              		.loc 1 102 5 view .LVU64
 103:Core/Src/i2c_handler/i2c_handler.c ****         // Process `sensor_data` now
 104:Core/Src/i2c_handler/i2c_handler.c ****     }
 372              		.loc 1 104 5 view .LVU65
 105:Core/Src/i2c_handler/i2c_handler.c **** }
 373              		.loc 1 105 1 is_stmt 0 view .LVU66
 374 0000 7047     		bx	lr
 375              		.cfi_endproc
 376              	.LFE140:
 378              		.section	.rodata.HAL_I2C_ErrorCallback.str1.4,"aMS",%progbits,1
 379              		.align	2
 380              	.LC2:
 381 0000 49324320 		.ascii	"I2C error occurred.\012\000"
 381      6572726F 
 381      72206F63 
 381      63757272 
 381      65642E0A 
 382              		.section	.text.HAL_I2C_ErrorCallback,"ax",%progbits
 383              		.align	1
 384              		.global	HAL_I2C_ErrorCallback
 385              		.syntax unified
 386              		.thumb
 387              		.thumb_func
 389              	HAL_I2C_ErrorCallback:
 390              	.LVL20:
 391              	.LFB141:
 106:Core/Src/i2c_handler/i2c_handler.c **** 
 107:Core/Src/i2c_handler/i2c_handler.c **** void HAL_I2C_ErrorCallback(I2C_HandleTypeDef *hi2c)
 108:Core/Src/i2c_handler/i2c_handler.c **** {
 392              		.loc 1 108 1 is_stmt 1 view -0
 393              		.cfi_startproc
 394              		@ args = 0, pretend = 0, frame = 0
 395              		@ frame_needed = 0, uses_anonymous_args = 0
 396              		.loc 1 108 1 is_stmt 0 view .LVU68
 397 0000 08B5     		push	{r3, lr}
 398              	.LCFI11:
 399              		.cfi_def_cfa_offset 8
 400              		.cfi_offset 3, -8
 401              		.cfi_offset 14, -4
 109:Core/Src/i2c_handler/i2c_handler.c ****     if (hi2c->Instance == I2C1) {
 402              		.loc 1 109 5 is_stmt 1 view .LVU69
ARM GAS  /var/folders/25/vg8ydb454_z3v37m53jqj5280000gn/T//ccgp8D1B.s 			page 10


 403              		.loc 1 109 13 is_stmt 0 view .LVU70
 404 0002 0268     		ldr	r2, [r0]
 405              		.loc 1 109 8 view .LVU71
 406 0004 034B     		ldr	r3, .L31
 407 0006 9A42     		cmp	r2, r3
 408 0008 00D0     		beq	.L30
 409              	.LVL21:
 410              	.L27:
 110:Core/Src/i2c_handler/i2c_handler.c ****         WriteUART("I2C error occurred.\n");
 111:Core/Src/i2c_handler/i2c_handler.c ****         // Optional: Try reinitializing or setting error flags
 112:Core/Src/i2c_handler/i2c_handler.c ****     }
 113:Core/Src/i2c_handler/i2c_handler.c **** }...
 411              		.loc 1 113 1 view .LVU72
 412 000a 08BD     		pop	{r3, pc}
 413              	.LVL22:
 414              	.L30:
 415              	.LBB4:
 110:Core/Src/i2c_handler/i2c_handler.c ****         WriteUART("I2C error occurred.\n");
 416              		.loc 1 110 9 is_stmt 1 view .LVU73
 417 000c 0248     		ldr	r0, .L31+4
 418              	.LVL23:
 110:Core/Src/i2c_handler/i2c_handler.c ****         WriteUART("I2C error occurred.\n");
 419              		.loc 1 110 9 is_stmt 0 view .LVU74
 420 000e FFF7FEFF 		bl	WriteUART
 421              	.LVL24:
 422              	.LBE4:
 423              		.loc 1 113 1 view .LVU75
 424 0012 FAE7     		b	.L27
 425              	.L32:
 426              		.align	2
 427              	.L31:
 428 0014 00540040 		.word	1073763328
 429 0018 00000000 		.word	.LC2
 430              		.cfi_endproc
 431              	.LFE141:
 433              		.section	.data.ctrl1.0,"aw"
 436              	ctrl1.0:
 437 0000 57       		.byte	87
 438              		.global	rawData
 439              		.section	.bss.rawData,"aw",%nobits
 440              		.align	2
 443              	rawData:
 444 0000 00000000 		.space	6
 444      0000
 445              		.global	acc_enabled
 446              		.section	.bss.acc_enabled,"aw",%nobits
 449              	acc_enabled:
 450 0000 00       		.space	1
 451              		.global	hi2c1
 452              		.section	.bss.hi2c1,"aw",%nobits
 453              		.align	2
 456              	hi2c1:
 457 0000 00000000 		.space	84
 457      00000000 
 457      00000000 
 457      00000000 
 457      00000000 
ARM GAS  /var/folders/25/vg8ydb454_z3v37m53jqj5280000gn/T//ccgp8D1B.s 			page 11


 458              		.text
 459              	.Letext0:
 460              		.file 2 "/Applications/ArmGNUToolchain/13.3.rel1/arm-none-eabi/arm-none-eabi/include/machine/_defa
 461              		.file 3 "/Applications/ArmGNUToolchain/13.3.rel1/arm-none-eabi/arm-none-eabi/include/sys/_stdint.h
 462              		.file 4 "Drivers/CMSIS/Device/ST/STM32F4xx/Include/stm32f411xe.h"
 463              		.file 5 "Drivers/STM32F4xx_HAL_Driver/Inc/stm32f4xx_hal_def.h"
 464              		.file 6 "Drivers/STM32F4xx_HAL_Driver/Inc/stm32f4xx_hal_dma.h"
 465              		.file 7 "Drivers/STM32F4xx_HAL_Driver/Inc/stm32f4xx_hal_i2c.h"
 466              		.file 8 "Core/Src/i2c_handler/i2c_handler.h"
 467              		.file 9 "Drivers/STM32F4xx_HAL_Driver/Inc/stm32f4xx_hal_cortex.h"
 468              		.file 10 "Core/Src/library/aml_hal.h"
ARM GAS  /var/folders/25/vg8ydb454_z3v37m53jqj5280000gn/T//ccgp8D1B.s 			page 12


DEFINED SYMBOLS
                            *ABS*:00000000 i2c_handler.c
/var/folders/25/vg8ydb454_z3v37m53jqj5280000gn/T//ccgp8D1B.s:21     .text.MX_I2C1_Init:00000000 $t
/var/folders/25/vg8ydb454_z3v37m53jqj5280000gn/T//ccgp8D1B.s:27     .text.MX_I2C1_Init:00000000 MX_I2C1_Init
/var/folders/25/vg8ydb454_z3v37m53jqj5280000gn/T//ccgp8D1B.s:107    .text.MX_I2C1_Init:00000050 $d
/var/folders/25/vg8ydb454_z3v37m53jqj5280000gn/T//ccgp8D1B.s:456    .bss.hi2c1:00000000 hi2c1
/var/folders/25/vg8ydb454_z3v37m53jqj5280000gn/T//ccgp8D1B.s:114    .rodata.I2C_connectivity_check.str1.4:00000000 $d
/var/folders/25/vg8ydb454_z3v37m53jqj5280000gn/T//ccgp8D1B.s:121    .text.I2C_connectivity_check:00000000 $t
/var/folders/25/vg8ydb454_z3v37m53jqj5280000gn/T//ccgp8D1B.s:127    .text.I2C_connectivity_check:00000000 I2C_connectivity_check
/var/folders/25/vg8ydb454_z3v37m53jqj5280000gn/T//ccgp8D1B.s:182    .text.I2C_connectivity_check:00000028 $d
/var/folders/25/vg8ydb454_z3v37m53jqj5280000gn/T//ccgp8D1B.s:190    .text.I2C_ACC_Enable:00000000 $t
/var/folders/25/vg8ydb454_z3v37m53jqj5280000gn/T//ccgp8D1B.s:196    .text.I2C_ACC_Enable:00000000 I2C_ACC_Enable
/var/folders/25/vg8ydb454_z3v37m53jqj5280000gn/T//ccgp8D1B.s:229    .text.I2C_ACC_Enable:0000001c $d
/var/folders/25/vg8ydb454_z3v37m53jqj5280000gn/T//ccgp8D1B.s:436    .data.ctrl1.0:00000000 ctrl1.0
/var/folders/25/vg8ydb454_z3v37m53jqj5280000gn/T//ccgp8D1B.s:235    .text.I2C_Read_ACC:00000000 $t
/var/folders/25/vg8ydb454_z3v37m53jqj5280000gn/T//ccgp8D1B.s:241    .text.I2C_Read_ACC:00000000 I2C_Read_ACC
/var/folders/25/vg8ydb454_z3v37m53jqj5280000gn/T//ccgp8D1B.s:274    .text.I2C_Read_ACC:00000020 $d
/var/folders/25/vg8ydb454_z3v37m53jqj5280000gn/T//ccgp8D1B.s:443    .bss.rawData:00000000 rawData
/var/folders/25/vg8ydb454_z3v37m53jqj5280000gn/T//ccgp8D1B.s:280    .text.readACC:00000000 $t
/var/folders/25/vg8ydb454_z3v37m53jqj5280000gn/T//ccgp8D1B.s:286    .text.readACC:00000000 readACC
/var/folders/25/vg8ydb454_z3v37m53jqj5280000gn/T//ccgp8D1B.s:330    .text.readACC:00000030 $d
/var/folders/25/vg8ydb454_z3v37m53jqj5280000gn/T//ccgp8D1B.s:335    .text.HAL_I2C_MemTxCpltCallback:00000000 $t
/var/folders/25/vg8ydb454_z3v37m53jqj5280000gn/T//ccgp8D1B.s:341    .text.HAL_I2C_MemTxCpltCallback:00000000 HAL_I2C_MemTxCpltCallback
/var/folders/25/vg8ydb454_z3v37m53jqj5280000gn/T//ccgp8D1B.s:357    .text.HAL_I2C_MemRxCpltCallback:00000000 $t
/var/folders/25/vg8ydb454_z3v37m53jqj5280000gn/T//ccgp8D1B.s:363    .text.HAL_I2C_MemRxCpltCallback:00000000 HAL_I2C_MemRxCpltCallback
/var/folders/25/vg8ydb454_z3v37m53jqj5280000gn/T//ccgp8D1B.s:379    .rodata.HAL_I2C_ErrorCallback.str1.4:00000000 $d
/var/folders/25/vg8ydb454_z3v37m53jqj5280000gn/T//ccgp8D1B.s:383    .text.HAL_I2C_ErrorCallback:00000000 $t
/var/folders/25/vg8ydb454_z3v37m53jqj5280000gn/T//ccgp8D1B.s:389    .text.HAL_I2C_ErrorCallback:00000000 HAL_I2C_ErrorCallback
/var/folders/25/vg8ydb454_z3v37m53jqj5280000gn/T//ccgp8D1B.s:428    .text.HAL_I2C_ErrorCallback:00000014 $d
/var/folders/25/vg8ydb454_z3v37m53jqj5280000gn/T//ccgp8D1B.s:440    .bss.rawData:00000000 $d
/var/folders/25/vg8ydb454_z3v37m53jqj5280000gn/T//ccgp8D1B.s:449    .bss.acc_enabled:00000000 acc_enabled
/var/folders/25/vg8ydb454_z3v37m53jqj5280000gn/T//ccgp8D1B.s:450    .bss.acc_enabled:00000000 $d
/var/folders/25/vg8ydb454_z3v37m53jqj5280000gn/T//ccgp8D1B.s:453    .bss.hi2c1:00000000 $d

UNDEFINED SYMBOLS
HAL_I2C_Init
HAL_NVIC_SetPriority
HAL_NVIC_EnableIRQ
Error_Handler
HAL_I2C_IsDeviceReady
WriteUART
HAL_I2C_Mem_Write_IT
HAL_I2C_Mem_Read_IT
HAL_I2C_Mem_Read
