ARM GAS  /var/folders/t0/g2s8z9xd75s2k51g_zcxx3qc0000gn/T//ccPqINul.s 			page 1


   1              		.cpu cortex-m4
   2              		.arch armv7e-m
   3              		.fpu fpv4-sp-d16
   4              		.eabi_attribute 27, 1
   5              		.eabi_attribute 28, 1
   6              		.eabi_attribute 20, 1
   7              		.eabi_attribute 21, 1
   8              		.eabi_attribute 23, 3
   9              		.eabi_attribute 24, 1
  10              		.eabi_attribute 25, 1
  11              		.eabi_attribute 26, 1
  12              		.eabi_attribute 30, 1
  13              		.eabi_attribute 34, 1
  14              		.eabi_attribute 18, 4
  15              		.file	"stm32f4xx_it.c"
  16              		.text
  17              	.Ltext0:
  18              		.cfi_sections	.debug_frame
  19              		.file 1 "Core/Src/stm32f4xx_it.c"
  20              		.section	.text.NMI_Handler,"ax",%progbits
  21              		.align	1
  22              		.global	NMI_Handler
  23              		.syntax unified
  24              		.thumb
  25              		.thumb_func
  27              	NMI_Handler:
  28              	.LFB137:
   1:Core/Src/stm32f4xx_it.c **** /* Includes ------------------------------------------------------------------*/
   2:Core/Src/stm32f4xx_it.c **** #include "main.h"
   3:Core/Src/stm32f4xx_it.c **** #include "stm32f4xx_it.h"
   4:Core/Src/stm32f4xx_it.c **** #include "uart_handler.h" // For access to HAL handles and WriteUART_Blocking
   5:Core/Src/stm32f4xx_it.c **** #include "i2c_handler.h"  // For access to I2C handle and functions
   6:Core/Src/stm32f4xx_it.c **** /* External variables --------------------------------------------------------*/
   7:Core/Src/stm32f4xx_it.c **** // Handles are now externed via uart_handler.h
   8:Core/Src/stm32f4xx_it.c **** 
   9:Core/Src/stm32f4xx_it.c **** /******************************************************************************/
  10:Core/Src/stm32f4xx_it.c **** /* Cortex-M4 Processor Interruption and Exception Handlers          */
  11:Core/Src/stm32f4xx_it.c **** /******************************************************************************/
  12:Core/Src/stm32f4xx_it.c **** // ... (NMI_Handler, HardFault_Handler, etc. remain the same) ...
  13:Core/Src/stm32f4xx_it.c **** void NMI_Handler(void) { while (1) {} }
  29              		.loc 1 13 24 view -0
  30              		.cfi_startproc
  31              		@ Volatile: function does not return.
  32              		@ args = 0, pretend = 0, frame = 0
  33              		@ frame_needed = 0, uses_anonymous_args = 0
  34              		@ link register save eliminated.
  35              	.L2:
  36              		.loc 1 13 26 view .LVU1
  37              		.loc 1 13 37 view .LVU2
  38              		.loc 1 13 32 view .LVU3
  39 0000 FEE7     		b	.L2
  40              		.cfi_endproc
  41              	.LFE137:
  43              		.section	.text.HardFault_Handler,"ax",%progbits
  44              		.align	1
  45              		.global	HardFault_Handler
  46              		.syntax unified
ARM GAS  /var/folders/t0/g2s8z9xd75s2k51g_zcxx3qc0000gn/T//ccPqINul.s 			page 2


  47              		.thumb
  48              		.thumb_func
  50              	HardFault_Handler:
  51              	.LFB138:
  14:Core/Src/stm32f4xx_it.c **** void HardFault_Handler(void) { while (1) {} }
  52              		.loc 1 14 30 view -0
  53              		.cfi_startproc
  54              		@ Volatile: function does not return.
  55              		@ args = 0, pretend = 0, frame = 0
  56              		@ frame_needed = 0, uses_anonymous_args = 0
  57              		@ link register save eliminated.
  58              	.L4:
  59              		.loc 1 14 32 view .LVU5
  60              		.loc 1 14 43 view .LVU6
  61              		.loc 1 14 38 view .LVU7
  62 0000 FEE7     		b	.L4
  63              		.cfi_endproc
  64              	.LFE138:
  66              		.section	.text.MemManage_Handler,"ax",%progbits
  67              		.align	1
  68              		.global	MemManage_Handler
  69              		.syntax unified
  70              		.thumb
  71              		.thumb_func
  73              	MemManage_Handler:
  74              	.LFB139:
  15:Core/Src/stm32f4xx_it.c **** void MemManage_Handler(void) { while (1) {} }
  75              		.loc 1 15 30 view -0
  76              		.cfi_startproc
  77              		@ Volatile: function does not return.
  78              		@ args = 0, pretend = 0, frame = 0
  79              		@ frame_needed = 0, uses_anonymous_args = 0
  80              		@ link register save eliminated.
  81              	.L6:
  82              		.loc 1 15 32 view .LVU9
  83              		.loc 1 15 43 view .LVU10
  84              		.loc 1 15 38 view .LVU11
  85 0000 FEE7     		b	.L6
  86              		.cfi_endproc
  87              	.LFE139:
  89              		.section	.text.BusFault_Handler,"ax",%progbits
  90              		.align	1
  91              		.global	BusFault_Handler
  92              		.syntax unified
  93              		.thumb
  94              		.thumb_func
  96              	BusFault_Handler:
  97              	.LFB140:
  16:Core/Src/stm32f4xx_it.c **** void BusFault_Handler(void) { while (1) {} }
  98              		.loc 1 16 29 view -0
  99              		.cfi_startproc
 100              		@ Volatile: function does not return.
 101              		@ args = 0, pretend = 0, frame = 0
 102              		@ frame_needed = 0, uses_anonymous_args = 0
 103              		@ link register save eliminated.
 104              	.L8:
 105              		.loc 1 16 31 view .LVU13
ARM GAS  /var/folders/t0/g2s8z9xd75s2k51g_zcxx3qc0000gn/T//ccPqINul.s 			page 3


 106              		.loc 1 16 42 view .LVU14
 107              		.loc 1 16 37 view .LVU15
 108 0000 FEE7     		b	.L8
 109              		.cfi_endproc
 110              	.LFE140:
 112              		.section	.text.UsageFault_Handler,"ax",%progbits
 113              		.align	1
 114              		.global	UsageFault_Handler
 115              		.syntax unified
 116              		.thumb
 117              		.thumb_func
 119              	UsageFault_Handler:
 120              	.LFB141:
  17:Core/Src/stm32f4xx_it.c **** void UsageFault_Handler(void) { while (1) {} }
 121              		.loc 1 17 31 view -0
 122              		.cfi_startproc
 123              		@ Volatile: function does not return.
 124              		@ args = 0, pretend = 0, frame = 0
 125              		@ frame_needed = 0, uses_anonymous_args = 0
 126              		@ link register save eliminated.
 127              	.L10:
 128              		.loc 1 17 33 view .LVU17
 129              		.loc 1 17 44 view .LVU18
 130              		.loc 1 17 39 view .LVU19
 131 0000 FEE7     		b	.L10
 132              		.cfi_endproc
 133              	.LFE141:
 135              		.section	.text.SVC_Handler,"ax",%progbits
 136              		.align	1
 137              		.global	SVC_Handler
 138              		.syntax unified
 139              		.thumb
 140              		.thumb_func
 142              	SVC_Handler:
 143              	.LFB142:
  18:Core/Src/stm32f4xx_it.c **** void SVC_Handler(void) {}
 144              		.loc 1 18 24 view -0
 145              		.cfi_startproc
 146              		@ args = 0, pretend = 0, frame = 0
 147              		@ frame_needed = 0, uses_anonymous_args = 0
 148              		@ link register save eliminated.
 149              		.loc 1 18 25 view .LVU21
 150 0000 7047     		bx	lr
 151              		.cfi_endproc
 152              	.LFE142:
 154              		.section	.text.DebugMon_Handler,"ax",%progbits
 155              		.align	1
 156              		.global	DebugMon_Handler
 157              		.syntax unified
 158              		.thumb
 159              		.thumb_func
 161              	DebugMon_Handler:
 162              	.LFB143:
  19:Core/Src/stm32f4xx_it.c **** void DebugMon_Handler(void) {}
 163              		.loc 1 19 29 view -0
 164              		.cfi_startproc
 165              		@ args = 0, pretend = 0, frame = 0
ARM GAS  /var/folders/t0/g2s8z9xd75s2k51g_zcxx3qc0000gn/T//ccPqINul.s 			page 4


 166              		@ frame_needed = 0, uses_anonymous_args = 0
 167              		@ link register save eliminated.
 168              		.loc 1 19 30 view .LVU23
 169 0000 7047     		bx	lr
 170              		.cfi_endproc
 171              	.LFE143:
 173              		.section	.text.PendSV_Handler,"ax",%progbits
 174              		.align	1
 175              		.global	PendSV_Handler
 176              		.syntax unified
 177              		.thumb
 178              		.thumb_func
 180              	PendSV_Handler:
 181              	.LFB144:
  20:Core/Src/stm32f4xx_it.c **** void PendSV_Handler(void) {}
 182              		.loc 1 20 27 view -0
 183              		.cfi_startproc
 184              		@ args = 0, pretend = 0, frame = 0
 185              		@ frame_needed = 0, uses_anonymous_args = 0
 186              		@ link register save eliminated.
 187              		.loc 1 20 28 view .LVU25
 188 0000 7047     		bx	lr
 189              		.cfi_endproc
 190              	.LFE144:
 192              		.section	.text.SysTick_Handler,"ax",%progbits
 193              		.align	1
 194              		.global	SysTick_Handler
 195              		.syntax unified
 196              		.thumb
 197              		.thumb_func
 199              	SysTick_Handler:
 200              	.LFB145:
  21:Core/Src/stm32f4xx_it.c **** 
  22:Core/Src/stm32f4xx_it.c **** /**
  23:Core/Src/stm32f4xx_it.c ****   * @brief This function handles System tick timer.
  24:Core/Src/stm32f4xx_it.c ****   */
  25:Core/Src/stm32f4xx_it.c **** void SysTick_Handler(void)
  26:Core/Src/stm32f4xx_it.c **** {
 201              		.loc 1 26 1 view -0
 202              		.cfi_startproc
 203              		@ args = 0, pretend = 0, frame = 0
 204              		@ frame_needed = 0, uses_anonymous_args = 0
 205 0000 08B5     		push	{r3, lr}
 206              	.LCFI0:
 207              		.cfi_def_cfa_offset 8
 208              		.cfi_offset 3, -8
 209              		.cfi_offset 14, -4
  27:Core/Src/stm32f4xx_it.c ****   HAL_IncTick();
 210              		.loc 1 27 3 view .LVU27
 211 0002 FFF7FEFF 		bl	HAL_IncTick
 212              	.LVL0:
  28:Core/Src/stm32f4xx_it.c **** }
 213              		.loc 1 28 1 is_stmt 0 view .LVU28
 214 0006 08BD     		pop	{r3, pc}
 215              		.cfi_endproc
 216              	.LFE145:
 218              		.section	.text.DMA2_Stream5_IRQHandler,"ax",%progbits
ARM GAS  /var/folders/t0/g2s8z9xd75s2k51g_zcxx3qc0000gn/T//ccPqINul.s 			page 5


 219              		.align	1
 220              		.global	DMA2_Stream5_IRQHandler
 221              		.syntax unified
 222              		.thumb
 223              		.thumb_func
 225              	DMA2_Stream5_IRQHandler:
 226              	.LFB146:
  29:Core/Src/stm32f4xx_it.c **** 
  30:Core/Src/stm32f4xx_it.c **** /******************************************************************************/
  31:Core/Src/stm32f4xx_it.c **** /* STM32F4xx Peripheral Interrupt Handlers                                    */
  32:Core/Src/stm32f4xx_it.c **** /******************************************************************************/
  33:Core/Src/stm32f4xx_it.c **** 
  34:Core/Src/stm32f4xx_it.c **** /**
  35:Core/Src/stm32f4xx_it.c ****   * @brief This function handles DMA2 stream5 global interrupt.
  36:Core/Src/stm32f4xx_it.c ****   * @note  This is the interrupt for our USART1_RX DMA (GPS data).
  37:Core/Src/stm32f4xx_it.c ****   */
  38:Core/Src/stm32f4xx_it.c **** void DMA2_Stream5_IRQHandler(void)
  39:Core/Src/stm32f4xx_it.c **** {
 227              		.loc 1 39 1 is_stmt 1 view -0
 228              		.cfi_startproc
 229              		@ args = 0, pretend = 0, frame = 0
 230              		@ frame_needed = 0, uses_anonymous_args = 0
 231 0000 08B5     		push	{r3, lr}
 232              	.LCFI1:
 233              		.cfi_def_cfa_offset 8
 234              		.cfi_offset 3, -8
 235              		.cfi_offset 14, -4
  40:Core/Src/stm32f4xx_it.c ****   // --- ADDED DIAGNOSTIC LINE ---
  41:Core/Src/stm32f4xx_it.c ****   HAL_DMA_IRQHandler(&hdma_usart1_rx);
 236              		.loc 1 41 3 view .LVU30
 237 0002 0248     		ldr	r0, .L18
 238 0004 FFF7FEFF 		bl	HAL_DMA_IRQHandler
 239              	.LVL1:
  42:Core/Src/stm32f4xx_it.c ****   // This message will print ONLY if the DMA hardware interrupt is successfully triggered.
  43:Core/Src/stm32f4xx_it.c ****   // WriteUART_Blocking("[DEBUG]: DMA2_Stream5_IRQHandler Entered!\r\n");
  44:Core/Src/stm32f4xx_it.c **** }
 240              		.loc 1 44 1 is_stmt 0 view .LVU31
 241 0008 08BD     		pop	{r3, pc}
 242              	.L19:
 243 000a 00BF     		.align	2
 244              	.L18:
 245 000c 00000000 		.word	hdma_usart1_rx
 246              		.cfi_endproc
 247              	.LFE146:
 249              		.section	.text.EXTI15_10_IRQHandler,"ax",%progbits
 250              		.align	1
 251              		.global	EXTI15_10_IRQHandler
 252              		.syntax unified
 253              		.thumb
 254              		.thumb_func
 256              	EXTI15_10_IRQHandler:
 257              	.LFB147:
  45:Core/Src/stm32f4xx_it.c **** 
  46:Core/Src/stm32f4xx_it.c **** /**
  47:Core/Src/stm32f4xx_it.c ****   * @brief This function handles EXTI line[15:10] interrupts.
  48:Core/Src/stm32f4xx_it.c ****   */
  49:Core/Src/stm32f4xx_it.c **** void EXTI15_10_IRQHandler(void)
ARM GAS  /var/folders/t0/g2s8z9xd75s2k51g_zcxx3qc0000gn/T//ccPqINul.s 			page 6


  50:Core/Src/stm32f4xx_it.c **** {
 258              		.loc 1 50 1 is_stmt 1 view -0
 259              		.cfi_startproc
 260              		@ args = 0, pretend = 0, frame = 0
 261              		@ frame_needed = 0, uses_anonymous_args = 0
 262 0000 08B5     		push	{r3, lr}
 263              	.LCFI2:
 264              		.cfi_def_cfa_offset 8
 265              		.cfi_offset 3, -8
 266              		.cfi_offset 14, -4
  51:Core/Src/stm32f4xx_it.c ****   HAL_GPIO_EXTI_IRQHandler(GPIO_PIN_13);
 267              		.loc 1 51 3 view .LVU33
 268 0002 4FF40050 		mov	r0, #8192
 269 0006 FFF7FEFF 		bl	HAL_GPIO_EXTI_IRQHandler
 270              	.LVL2:
  52:Core/Src/stm32f4xx_it.c **** }
 271              		.loc 1 52 1 is_stmt 0 view .LVU34
 272 000a 08BD     		pop	{r3, pc}
 273              		.cfi_endproc
 274              	.LFE147:
 276              		.section	.text.USART1_IRQHandler,"ax",%progbits
 277              		.align	1
 278              		.global	USART1_IRQHandler
 279              		.syntax unified
 280              		.thumb
 281              		.thumb_func
 283              	USART1_IRQHandler:
 284              	.LFB148:
  53:Core/Src/stm32f4xx_it.c **** 
  54:Core/Src/stm32f4xx_it.c **** /**
  55:Core/Src/stm32f4xx_it.c ****   * @brief This function handles USART1 global interrupt.
  56:Core/Src/stm32f4xx_it.c ****   */
  57:Core/Src/stm32f4xx_it.c **** void USART1_IRQHandler(void)
  58:Core/Src/stm32f4xx_it.c **** {
 285              		.loc 1 58 1 is_stmt 1 view -0
 286              		.cfi_startproc
 287              		@ args = 0, pretend = 0, frame = 0
 288              		@ frame_needed = 0, uses_anonymous_args = 0
 289 0000 08B5     		push	{r3, lr}
 290              	.LCFI3:
 291              		.cfi_def_cfa_offset 8
 292              		.cfi_offset 3, -8
 293              		.cfi_offset 14, -4
  59:Core/Src/stm32f4xx_it.c ****   HAL_UART_IRQHandler(&huart1);
 294              		.loc 1 59 3 view .LVU36
 295 0002 0248     		ldr	r0, .L24
 296 0004 FFF7FEFF 		bl	HAL_UART_IRQHandler
 297              	.LVL3:
  60:Core/Src/stm32f4xx_it.c **** }
 298              		.loc 1 60 1 is_stmt 0 view .LVU37
 299 0008 08BD     		pop	{r3, pc}
 300              	.L25:
 301 000a 00BF     		.align	2
 302              	.L24:
 303 000c 00000000 		.word	huart1
 304              		.cfi_endproc
 305              	.LFE148:
ARM GAS  /var/folders/t0/g2s8z9xd75s2k51g_zcxx3qc0000gn/T//ccPqINul.s 			page 7


 307              		.section	.text.USART2_IRQHandler,"ax",%progbits
 308              		.align	1
 309              		.global	USART2_IRQHandler
 310              		.syntax unified
 311              		.thumb
 312              		.thumb_func
 314              	USART2_IRQHandler:
 315              	.LFB149:
  61:Core/Src/stm32f4xx_it.c **** 
  62:Core/Src/stm32f4xx_it.c **** /**
  63:Core/Src/stm32f4xx_it.c ****   * @brief This function handles USART2 global interrupt.
  64:Core/Src/stm32f4xx_it.c ****   */
  65:Core/Src/stm32f4xx_it.c **** void USART2_IRQHandler(void)
  66:Core/Src/stm32f4xx_it.c **** {
 316              		.loc 1 66 1 is_stmt 1 view -0
 317              		.cfi_startproc
 318              		@ args = 0, pretend = 0, frame = 0
 319              		@ frame_needed = 0, uses_anonymous_args = 0
 320 0000 08B5     		push	{r3, lr}
 321              	.LCFI4:
 322              		.cfi_def_cfa_offset 8
 323              		.cfi_offset 3, -8
 324              		.cfi_offset 14, -4
  67:Core/Src/stm32f4xx_it.c ****   HAL_UART_IRQHandler(&huart2);
 325              		.loc 1 67 3 view .LVU39
 326 0002 0248     		ldr	r0, .L28
 327 0004 FFF7FEFF 		bl	HAL_UART_IRQHandler
 328              	.LVL4:
  68:Core/Src/stm32f4xx_it.c **** }
 329              		.loc 1 68 1 is_stmt 0 view .LVU40
 330 0008 08BD     		pop	{r3, pc}
 331              	.L29:
 332 000a 00BF     		.align	2
 333              	.L28:
 334 000c 00000000 		.word	huart2
 335              		.cfi_endproc
 336              	.LFE149:
 338              		.section	.text.I2C1_EV_IRQHandler,"ax",%progbits
 339              		.align	1
 340              		.global	I2C1_EV_IRQHandler
 341              		.syntax unified
 342              		.thumb
 343              		.thumb_func
 345              	I2C1_EV_IRQHandler:
 346              	.LFB150:
  69:Core/Src/stm32f4xx_it.c **** 
  70:Core/Src/stm32f4xx_it.c **** 
  71:Core/Src/stm32f4xx_it.c **** /**
  72:Core/Src/stm32f4xx_it.c ****   * @brief This function handles I2C1 event interrupt.
  73:Core/Src/stm32f4xx_it.c ****   */
  74:Core/Src/stm32f4xx_it.c **** void I2C1_EV_IRQHandler(void)
  75:Core/Src/stm32f4xx_it.c **** {
 347              		.loc 1 75 1 is_stmt 1 view -0
 348              		.cfi_startproc
 349              		@ args = 0, pretend = 0, frame = 0
 350              		@ frame_needed = 0, uses_anonymous_args = 0
 351 0000 08B5     		push	{r3, lr}
ARM GAS  /var/folders/t0/g2s8z9xd75s2k51g_zcxx3qc0000gn/T//ccPqINul.s 			page 8


 352              	.LCFI5:
 353              		.cfi_def_cfa_offset 8
 354              		.cfi_offset 3, -8
 355              		.cfi_offset 14, -4
  76:Core/Src/stm32f4xx_it.c ****   HAL_I2C_EV_IRQHandler(&hi2c1);
 356              		.loc 1 76 3 view .LVU42
 357 0002 0248     		ldr	r0, .L32
 358 0004 FFF7FEFF 		bl	HAL_I2C_EV_IRQHandler
 359              	.LVL5:
  77:Core/Src/stm32f4xx_it.c **** }
 360              		.loc 1 77 1 is_stmt 0 view .LVU43
 361 0008 08BD     		pop	{r3, pc}
 362              	.L33:
 363 000a 00BF     		.align	2
 364              	.L32:
 365 000c 00000000 		.word	hi2c1
 366              		.cfi_endproc
 367              	.LFE150:
 369              		.section	.text.I2C1_ER_IRQHandler,"ax",%progbits
 370              		.align	1
 371              		.global	I2C1_ER_IRQHandler
 372              		.syntax unified
 373              		.thumb
 374              		.thumb_func
 376              	I2C1_ER_IRQHandler:
 377              	.LFB151:
  78:Core/Src/stm32f4xx_it.c **** 
  79:Core/Src/stm32f4xx_it.c **** /**
  80:Core/Src/stm32f4xx_it.c ****   * @brief This function handles I2C1 error interrupt.
  81:Core/Src/stm32f4xx_it.c ****   */
  82:Core/Src/stm32f4xx_it.c **** void I2C1_ER_IRQHandler(void)
  83:Core/Src/stm32f4xx_it.c **** {
 378              		.loc 1 83 1 is_stmt 1 view -0
 379              		.cfi_startproc
 380              		@ args = 0, pretend = 0, frame = 0
 381              		@ frame_needed = 0, uses_anonymous_args = 0
 382 0000 08B5     		push	{r3, lr}
 383              	.LCFI6:
 384              		.cfi_def_cfa_offset 8
 385              		.cfi_offset 3, -8
 386              		.cfi_offset 14, -4
  84:Core/Src/stm32f4xx_it.c ****   HAL_I2C_ER_IRQHandler(&hi2c1);
 387              		.loc 1 84 3 view .LVU45
 388 0002 0248     		ldr	r0, .L36
 389 0004 FFF7FEFF 		bl	HAL_I2C_ER_IRQHandler
 390              	.LVL6:
  85:Core/Src/stm32f4xx_it.c **** }...
 391              		.loc 1 85 1 is_stmt 0 view .LVU46
 392 0008 08BD     		pop	{r3, pc}
 393              	.L37:
 394 000a 00BF     		.align	2
 395              	.L36:
 396 000c 00000000 		.word	hi2c1
 397              		.cfi_endproc
 398              	.LFE151:
 400              		.text
 401              	.Letext0:
ARM GAS  /var/folders/t0/g2s8z9xd75s2k51g_zcxx3qc0000gn/T//ccPqINul.s 			page 9


 402              		.file 2 "/opt/arm-gnu-toolchain/arm-none-eabi/include/machine/_default_types.h"
 403              		.file 3 "/opt/arm-gnu-toolchain/arm-none-eabi/include/sys/_stdint.h"
 404              		.file 4 "Drivers/CMSIS/Device/ST/STM32F4xx/Include/stm32f411xe.h"
 405              		.file 5 "Drivers/STM32F4xx_HAL_Driver/Inc/stm32f4xx_hal_def.h"
 406              		.file 6 "Drivers/STM32F4xx_HAL_Driver/Inc/stm32f4xx_hal_dma.h"
 407              		.file 7 "Drivers/STM32F4xx_HAL_Driver/Inc/stm32f4xx_hal_i2c.h"
 408              		.file 8 "Drivers/STM32F4xx_HAL_Driver/Inc/stm32f4xx_hal_uart.h"
 409              		.file 9 "Core/Src/uart_handler/uart_handler.h"
 410              		.file 10 "Core/Src/i2c_handler/i2c_handler.h"
 411              		.file 11 "Drivers/STM32F4xx_HAL_Driver/Inc/stm32f4xx_hal_gpio.h"
 412              		.file 12 "Drivers/STM32F4xx_HAL_Driver/Inc/stm32f4xx_hal.h"
ARM GAS  /var/folders/t0/g2s8z9xd75s2k51g_zcxx3qc0000gn/T//ccPqINul.s 			page 10

