ARM GAS  /var/folders/25/vg8ydb454_z3v37m53jqj5280000gn/T//ccGASkP2.s 			page 1


   1              		.cpu cortex-m4
   2              		.arch armv7e-m
   3              		.fpu fpv4-sp-d16
   4              		.eabi_attribute 27, 1
   5              		.eabi_attribute 28, 1
   6              		.eabi_attribute 20, 1
   7              		.eabi_attribute 21, 1
   8              		.eabi_attribute 23, 3
   9              		.eabi_attribute 24, 1
  10              		.eabi_attribute 25, 1
  11              		.eabi_attribute 26, 1
  12              		.eabi_attribute 30, 1
  13              		.eabi_attribute 34, 1
  14              		.eabi_attribute 18, 4
  15              		.file	"stm32f4xx_it.c"
  16              		.text
  17              	.Ltext0:
  18              		.cfi_sections	.debug_frame
  19              		.file 1 "Core/Src/stm32f4xx_it.c"
  20              		.section	.text.NMI_Handler,"ax",%progbits
  21              		.align	1
  22              		.global	NMI_Handler
  23              		.syntax unified
  24              		.thumb
  25              		.thumb_func
  27              	NMI_Handler:
  28              	.LFB134:
   1:Core/Src/stm32f4xx_it.c **** /* Includes ------------------------------------------------------------------*/
   2:Core/Src/stm32f4xx_it.c **** #include "main.h"
   3:Core/Src/stm32f4xx_it.c **** #include "stm32f4xx_it.h"
   4:Core/Src/stm32f4xx_it.c **** #include "uart_handler.h" // For access to HAL handles and WriteUART_Blocking
   5:Core/Src/stm32f4xx_it.c **** 
   6:Core/Src/stm32f4xx_it.c **** /* External variables --------------------------------------------------------*/
   7:Core/Src/stm32f4xx_it.c **** // Handles are now externed via uart_handler.h
   8:Core/Src/stm32f4xx_it.c **** 
   9:Core/Src/stm32f4xx_it.c **** /******************************************************************************/
  10:Core/Src/stm32f4xx_it.c **** /* Cortex-M4 Processor Interruption and Exception Handlers          */
  11:Core/Src/stm32f4xx_it.c **** /******************************************************************************/
  12:Core/Src/stm32f4xx_it.c **** // ... (NMI_Handler, HardFault_Handler, etc. remain the same) ...
  13:Core/Src/stm32f4xx_it.c **** void NMI_Handler(void) { while (1) {} }
  29              		.loc 1 13 24 view -0
  30              		.cfi_startproc
  31              		@ Volatile: function does not return.
  32              		@ args = 0, pretend = 0, frame = 0
  33              		@ frame_needed = 0, uses_anonymous_args = 0
  34              		@ link register save eliminated.
  35              	.L2:
  36              		.loc 1 13 26 view .LVU1
  37              		.loc 1 13 37 view .LVU2
  38              		.loc 1 13 32 view .LVU3
  39 0000 FEE7     		b	.L2
  40              		.cfi_endproc
  41              	.LFE134:
  43              		.section	.text.HardFault_Handler,"ax",%progbits
  44              		.align	1
  45              		.global	HardFault_Handler
  46              		.syntax unified
ARM GAS  /var/folders/25/vg8ydb454_z3v37m53jqj5280000gn/T//ccGASkP2.s 			page 2


  47              		.thumb
  48              		.thumb_func
  50              	HardFault_Handler:
  51              	.LFB135:
  14:Core/Src/stm32f4xx_it.c **** void HardFault_Handler(void) { while (1) {} }
  52              		.loc 1 14 30 view -0
  53              		.cfi_startproc
  54              		@ Volatile: function does not return.
  55              		@ args = 0, pretend = 0, frame = 0
  56              		@ frame_needed = 0, uses_anonymous_args = 0
  57              		@ link register save eliminated.
  58              	.L4:
  59              		.loc 1 14 32 view .LVU5
  60              		.loc 1 14 43 view .LVU6
  61              		.loc 1 14 38 view .LVU7
  62 0000 FEE7     		b	.L4
  63              		.cfi_endproc
  64              	.LFE135:
  66              		.section	.text.MemManage_Handler,"ax",%progbits
  67              		.align	1
  68              		.global	MemManage_Handler
  69              		.syntax unified
  70              		.thumb
  71              		.thumb_func
  73              	MemManage_Handler:
  74              	.LFB136:
  15:Core/Src/stm32f4xx_it.c **** void MemManage_Handler(void) { while (1) {} }
  75              		.loc 1 15 30 view -0
  76              		.cfi_startproc
  77              		@ Volatile: function does not return.
  78              		@ args = 0, pretend = 0, frame = 0
  79              		@ frame_needed = 0, uses_anonymous_args = 0
  80              		@ link register save eliminated.
  81              	.L6:
  82              		.loc 1 15 32 view .LVU9
  83              		.loc 1 15 43 view .LVU10
  84              		.loc 1 15 38 view .LVU11
  85 0000 FEE7     		b	.L6
  86              		.cfi_endproc
  87              	.LFE136:
  89              		.section	.text.BusFault_Handler,"ax",%progbits
  90              		.align	1
  91              		.global	BusFault_Handler
  92              		.syntax unified
  93              		.thumb
  94              		.thumb_func
  96              	BusFault_Handler:
  97              	.LFB137:
  16:Core/Src/stm32f4xx_it.c **** void BusFault_Handler(void) { while (1) {} }
  98              		.loc 1 16 29 view -0
  99              		.cfi_startproc
 100              		@ Volatile: function does not return.
 101              		@ args = 0, pretend = 0, frame = 0
 102              		@ frame_needed = 0, uses_anonymous_args = 0
 103              		@ link register save eliminated.
 104              	.L8:
 105              		.loc 1 16 31 view .LVU13
ARM GAS  /var/folders/25/vg8ydb454_z3v37m53jqj5280000gn/T//ccGASkP2.s 			page 3


 106              		.loc 1 16 42 view .LVU14
 107              		.loc 1 16 37 view .LVU15
 108 0000 FEE7     		b	.L8
 109              		.cfi_endproc
 110              	.LFE137:
 112              		.section	.text.UsageFault_Handler,"ax",%progbits
 113              		.align	1
 114              		.global	UsageFault_Handler
 115              		.syntax unified
 116              		.thumb
 117              		.thumb_func
 119              	UsageFault_Handler:
 120              	.LFB138:
  17:Core/Src/stm32f4xx_it.c **** void UsageFault_Handler(void) { while (1) {} }
 121              		.loc 1 17 31 view -0
 122              		.cfi_startproc
 123              		@ Volatile: function does not return.
 124              		@ args = 0, pretend = 0, frame = 0
 125              		@ frame_needed = 0, uses_anonymous_args = 0
 126              		@ link register save eliminated.
 127              	.L10:
 128              		.loc 1 17 33 view .LVU17
 129              		.loc 1 17 44 view .LVU18
 130              		.loc 1 17 39 view .LVU19
 131 0000 FEE7     		b	.L10
 132              		.cfi_endproc
 133              	.LFE138:
 135              		.section	.text.SVC_Handler,"ax",%progbits
 136              		.align	1
 137              		.global	SVC_Handler
 138              		.syntax unified
 139              		.thumb
 140              		.thumb_func
 142              	SVC_Handler:
 143              	.LFB139:
  18:Core/Src/stm32f4xx_it.c **** void SVC_Handler(void) {}
 144              		.loc 1 18 24 view -0
 145              		.cfi_startproc
 146              		@ args = 0, pretend = 0, frame = 0
 147              		@ frame_needed = 0, uses_anonymous_args = 0
 148              		@ link register save eliminated.
 149              		.loc 1 18 25 view .LVU21
 150 0000 7047     		bx	lr
 151              		.cfi_endproc
 152              	.LFE139:
 154              		.section	.text.DebugMon_Handler,"ax",%progbits
 155              		.align	1
 156              		.global	DebugMon_Handler
 157              		.syntax unified
 158              		.thumb
 159              		.thumb_func
 161              	DebugMon_Handler:
 162              	.LFB140:
  19:Core/Src/stm32f4xx_it.c **** void DebugMon_Handler(void) {}
 163              		.loc 1 19 29 view -0
 164              		.cfi_startproc
 165              		@ args = 0, pretend = 0, frame = 0
ARM GAS  /var/folders/25/vg8ydb454_z3v37m53jqj5280000gn/T//ccGASkP2.s 			page 4


 166              		@ frame_needed = 0, uses_anonymous_args = 0
 167              		@ link register save eliminated.
 168              		.loc 1 19 30 view .LVU23
 169 0000 7047     		bx	lr
 170              		.cfi_endproc
 171              	.LFE140:
 173              		.section	.text.PendSV_Handler,"ax",%progbits
 174              		.align	1
 175              		.global	PendSV_Handler
 176              		.syntax unified
 177              		.thumb
 178              		.thumb_func
 180              	PendSV_Handler:
 181              	.LFB141:
  20:Core/Src/stm32f4xx_it.c **** void PendSV_Handler(void) {}
 182              		.loc 1 20 27 view -0
 183              		.cfi_startproc
 184              		@ args = 0, pretend = 0, frame = 0
 185              		@ frame_needed = 0, uses_anonymous_args = 0
 186              		@ link register save eliminated.
 187              		.loc 1 20 28 view .LVU25
 188 0000 7047     		bx	lr
 189              		.cfi_endproc
 190              	.LFE141:
 192              		.section	.text.SysTick_Handler,"ax",%progbits
 193              		.align	1
 194              		.global	SysTick_Handler
 195              		.syntax unified
 196              		.thumb
 197              		.thumb_func
 199              	SysTick_Handler:
 200              	.LFB142:
  21:Core/Src/stm32f4xx_it.c **** 
  22:Core/Src/stm32f4xx_it.c **** /**
  23:Core/Src/stm32f4xx_it.c ****   * @brief This function handles System tick timer.
  24:Core/Src/stm32f4xx_it.c ****   */
  25:Core/Src/stm32f4xx_it.c **** void SysTick_Handler(void)
  26:Core/Src/stm32f4xx_it.c **** {
 201              		.loc 1 26 1 view -0
 202              		.cfi_startproc
 203              		@ args = 0, pretend = 0, frame = 0
 204              		@ frame_needed = 0, uses_anonymous_args = 0
 205 0000 08B5     		push	{r3, lr}
 206              	.LCFI0:
 207              		.cfi_def_cfa_offset 8
 208              		.cfi_offset 3, -8
 209              		.cfi_offset 14, -4
  27:Core/Src/stm32f4xx_it.c ****   HAL_IncTick();
 210              		.loc 1 27 3 view .LVU27
 211 0002 FFF7FEFF 		bl	HAL_IncTick
 212              	.LVL0:
  28:Core/Src/stm32f4xx_it.c **** }
 213              		.loc 1 28 1 is_stmt 0 view .LVU28
 214 0006 08BD     		pop	{r3, pc}
 215              		.cfi_endproc
 216              	.LFE142:
 218              		.section	.rodata.DMA2_Stream5_IRQHandler.str1.4,"aMS",%progbits,1
ARM GAS  /var/folders/25/vg8ydb454_z3v37m53jqj5280000gn/T//ccGASkP2.s 			page 5


 219              		.align	2
 220              	.LC0:
 221 0000 5B444542 		.ascii	"[DEBUG]: DMA2_Stream5_IRQHandler Entered!\015\012\000"
 221      55475D3A 
 221      20444D41 
 221      325F5374 
 221      7265616D 
 222              		.section	.text.DMA2_Stream5_IRQHandler,"ax",%progbits
 223              		.align	1
 224              		.global	DMA2_Stream5_IRQHandler
 225              		.syntax unified
 226              		.thumb
 227              		.thumb_func
 229              	DMA2_Stream5_IRQHandler:
 230              	.LFB143:
  29:Core/Src/stm32f4xx_it.c **** 
  30:Core/Src/stm32f4xx_it.c **** /******************************************************************************/
  31:Core/Src/stm32f4xx_it.c **** /* STM32F4xx Peripheral Interrupt Handlers                                    */
  32:Core/Src/stm32f4xx_it.c **** /******************************************************************************/
  33:Core/Src/stm32f4xx_it.c **** 
  34:Core/Src/stm32f4xx_it.c **** /**
  35:Core/Src/stm32f4xx_it.c ****   * @brief This function handles DMA2 stream5 global interrupt.
  36:Core/Src/stm32f4xx_it.c ****   * @note  This is the interrupt for our USART1_RX DMA (GPS data).
  37:Core/Src/stm32f4xx_it.c ****   */
  38:Core/Src/stm32f4xx_it.c **** void DMA2_Stream5_IRQHandler(void)
  39:Core/Src/stm32f4xx_it.c **** {
 231              		.loc 1 39 1 is_stmt 1 view -0
 232              		.cfi_startproc
 233              		@ args = 0, pretend = 0, frame = 0
 234              		@ frame_needed = 0, uses_anonymous_args = 0
 235 0000 08B5     		push	{r3, lr}
 236              	.LCFI1:
 237              		.cfi_def_cfa_offset 8
 238              		.cfi_offset 3, -8
 239              		.cfi_offset 14, -4
  40:Core/Src/stm32f4xx_it.c ****   // --- ADDED DIAGNOSTIC LINE ---
  41:Core/Src/stm32f4xx_it.c ****   // This message will print ONLY if the DMA hardware interrupt is successfully triggered.
  42:Core/Src/stm32f4xx_it.c ****   WriteUART_Blocking("[DEBUG]: DMA2_Stream5_IRQHandler Entered!\r\n");
 240              		.loc 1 42 3 view .LVU30
 241 0002 0348     		ldr	r0, .L18
 242 0004 FFF7FEFF 		bl	WriteUART_Blocking
 243              	.LVL1:
  43:Core/Src/stm32f4xx_it.c ****   HAL_DMA_IRQHandler(&hdma_usart1_rx);
 244              		.loc 1 43 3 view .LVU31
 245 0008 0248     		ldr	r0, .L18+4
 246 000a FFF7FEFF 		bl	HAL_DMA_IRQHandler
 247              	.LVL2:
  44:Core/Src/stm32f4xx_it.c **** }
 248              		.loc 1 44 1 is_stmt 0 view .LVU32
 249 000e 08BD     		pop	{r3, pc}
 250              	.L19:
 251              		.align	2
 252              	.L18:
 253 0010 00000000 		.word	.LC0
 254 0014 00000000 		.word	hdma_usart1_rx
 255              		.cfi_endproc
 256              	.LFE143:
ARM GAS  /var/folders/25/vg8ydb454_z3v37m53jqj5280000gn/T//ccGASkP2.s 			page 6


 258              		.section	.text.EXTI15_10_IRQHandler,"ax",%progbits
 259              		.align	1
 260              		.global	EXTI15_10_IRQHandler
 261              		.syntax unified
 262              		.thumb
 263              		.thumb_func
 265              	EXTI15_10_IRQHandler:
 266              	.LFB144:
  45:Core/Src/stm32f4xx_it.c **** 
  46:Core/Src/stm32f4xx_it.c **** /**
  47:Core/Src/stm32f4xx_it.c ****   * @brief This function handles EXTI line[15:10] interrupts.
  48:Core/Src/stm32f4xx_it.c ****   */
  49:Core/Src/stm32f4xx_it.c **** void EXTI15_10_IRQHandler(void)
  50:Core/Src/stm32f4xx_it.c **** {
 267              		.loc 1 50 1 is_stmt 1 view -0
 268              		.cfi_startproc
 269              		@ args = 0, pretend = 0, frame = 0
 270              		@ frame_needed = 0, uses_anonymous_args = 0
 271 0000 08B5     		push	{r3, lr}
 272              	.LCFI2:
 273              		.cfi_def_cfa_offset 8
 274              		.cfi_offset 3, -8
 275              		.cfi_offset 14, -4
  51:Core/Src/stm32f4xx_it.c ****   HAL_GPIO_EXTI_IRQHandler(GPIO_PIN_13);
 276              		.loc 1 51 3 view .LVU34
 277 0002 4FF40050 		mov	r0, #8192
 278 0006 FFF7FEFF 		bl	HAL_GPIO_EXTI_IRQHandler
 279              	.LVL3:
  52:Core/Src/stm32f4xx_it.c **** }
 280              		.loc 1 52 1 is_stmt 0 view .LVU35
 281 000a 08BD     		pop	{r3, pc}
 282              		.cfi_endproc
 283              	.LFE144:
 285              		.section	.text.USART1_IRQHandler,"ax",%progbits
 286              		.align	1
 287              		.global	USART1_IRQHandler
 288              		.syntax unified
 289              		.thumb
 290              		.thumb_func
 292              	USART1_IRQHandler:
 293              	.LFB145:
  53:Core/Src/stm32f4xx_it.c **** 
  54:Core/Src/stm32f4xx_it.c **** /**
  55:Core/Src/stm32f4xx_it.c ****   * @brief This function handles USART1 global interrupt.
  56:Core/Src/stm32f4xx_it.c ****   */
  57:Core/Src/stm32f4xx_it.c **** void USART1_IRQHandler(void)
  58:Core/Src/stm32f4xx_it.c **** {
 294              		.loc 1 58 1 is_stmt 1 view -0
 295              		.cfi_startproc
 296              		@ args = 0, pretend = 0, frame = 0
 297              		@ frame_needed = 0, uses_anonymous_args = 0
 298 0000 08B5     		push	{r3, lr}
 299              	.LCFI3:
 300              		.cfi_def_cfa_offset 8
 301              		.cfi_offset 3, -8
 302              		.cfi_offset 14, -4
  59:Core/Src/stm32f4xx_it.c ****   HAL_UART_IRQHandler(&huart1);
ARM GAS  /var/folders/25/vg8ydb454_z3v37m53jqj5280000gn/T//ccGASkP2.s 			page 7


 303              		.loc 1 59 3 view .LVU37
 304 0002 0248     		ldr	r0, .L24
 305 0004 FFF7FEFF 		bl	HAL_UART_IRQHandler
 306              	.LVL4:
  60:Core/Src/stm32f4xx_it.c **** }
 307              		.loc 1 60 1 is_stmt 0 view .LVU38
 308 0008 08BD     		pop	{r3, pc}
 309              	.L25:
 310 000a 00BF     		.align	2
 311              	.L24:
 312 000c 00000000 		.word	huart1
 313              		.cfi_endproc
 314              	.LFE145:
 316              		.section	.text.USART2_IRQHandler,"ax",%progbits
 317              		.align	1
 318              		.global	USART2_IRQHandler
 319              		.syntax unified
 320              		.thumb
 321              		.thumb_func
 323              	USART2_IRQHandler:
 324              	.LFB146:
  61:Core/Src/stm32f4xx_it.c **** 
  62:Core/Src/stm32f4xx_it.c **** /**
  63:Core/Src/stm32f4xx_it.c ****   * @brief This function handles USART2 global interrupt.
  64:Core/Src/stm32f4xx_it.c ****   */
  65:Core/Src/stm32f4xx_it.c **** void USART2_IRQHandler(void)
  66:Core/Src/stm32f4xx_it.c **** {
 325              		.loc 1 66 1 is_stmt 1 view -0
 326              		.cfi_startproc
 327              		@ args = 0, pretend = 0, frame = 0
 328              		@ frame_needed = 0, uses_anonymous_args = 0
 329 0000 08B5     		push	{r3, lr}
 330              	.LCFI4:
 331              		.cfi_def_cfa_offset 8
 332              		.cfi_offset 3, -8
 333              		.cfi_offset 14, -4
  67:Core/Src/stm32f4xx_it.c ****   HAL_UART_IRQHandler(&huart2);
 334              		.loc 1 67 3 view .LVU40
 335 0002 0248     		ldr	r0, .L28
 336 0004 FFF7FEFF 		bl	HAL_UART_IRQHandler
 337              	.LVL5:
  68:Core/Src/stm32f4xx_it.c **** }
 338              		.loc 1 68 1 is_stmt 0 view .LVU41
 339 0008 08BD     		pop	{r3, pc}
 340              	.L29:
 341 000a 00BF     		.align	2
 342              	.L28:
 343 000c 00000000 		.word	huart2
 344              		.cfi_endproc
 345              	.LFE146:
 347              		.text
 348              	.Letext0:
 349              		.file 2 "/Applications/ArmGNUToolchain/13.3.rel1/arm-none-eabi/arm-none-eabi/include/machine/_defa
 350              		.file 3 "/Applications/ArmGNUToolchain/13.3.rel1/arm-none-eabi/arm-none-eabi/include/sys/_stdint.h
 351              		.file 4 "Drivers/CMSIS/Device/ST/STM32F4xx/Include/stm32f411xe.h"
 352              		.file 5 "Drivers/STM32F4xx_HAL_Driver/Inc/stm32f4xx_hal_def.h"
 353              		.file 6 "Drivers/STM32F4xx_HAL_Driver/Inc/stm32f4xx_hal_dma.h"
ARM GAS  /var/folders/25/vg8ydb454_z3v37m53jqj5280000gn/T//ccGASkP2.s 			page 8


 354              		.file 7 "Drivers/STM32F4xx_HAL_Driver/Inc/stm32f4xx_hal_uart.h"
 355              		.file 8 "Core/Src/uart_handler/uart_handler.h"
 356              		.file 9 "Drivers/STM32F4xx_HAL_Driver/Inc/stm32f4xx_hal_gpio.h"
 357              		.file 10 "Drivers/STM32F4xx_HAL_Driver/Inc/stm32f4xx_hal.h"
ARM GAS  /var/folders/25/vg8ydb454_z3v37m53jqj5280000gn/T//ccGASkP2.s 			page 9


DEFINED SYMBOLS
                            *ABS*:00000000 stm32f4xx_it.c
/var/folders/25/vg8ydb454_z3v37m53jqj5280000gn/T//ccGASkP2.s:21     .text.NMI_Handler:00000000 $t
/var/folders/25/vg8ydb454_z3v37m53jqj5280000gn/T//ccGASkP2.s:27     .text.NMI_Handler:00000000 NMI_Handler
/var/folders/25/vg8ydb454_z3v37m53jqj5280000gn/T//ccGASkP2.s:44     .text.HardFault_Handler:00000000 $t
/var/folders/25/vg8ydb454_z3v37m53jqj5280000gn/T//ccGASkP2.s:50     .text.HardFault_Handler:00000000 HardFault_Handler
/var/folders/25/vg8ydb454_z3v37m53jqj5280000gn/T//ccGASkP2.s:67     .text.MemManage_Handler:00000000 $t
/var/folders/25/vg8ydb454_z3v37m53jqj5280000gn/T//ccGASkP2.s:73     .text.MemManage_Handler:00000000 MemManage_Handler
/var/folders/25/vg8ydb454_z3v37m53jqj5280000gn/T//ccGASkP2.s:90     .text.BusFault_Handler:00000000 $t
/var/folders/25/vg8ydb454_z3v37m53jqj5280000gn/T//ccGASkP2.s:96     .text.BusFault_Handler:00000000 BusFault_Handler
/var/folders/25/vg8ydb454_z3v37m53jqj5280000gn/T//ccGASkP2.s:113    .text.UsageFault_Handler:00000000 $t
/var/folders/25/vg8ydb454_z3v37m53jqj5280000gn/T//ccGASkP2.s:119    .text.UsageFault_Handler:00000000 UsageFault_Handler
/var/folders/25/vg8ydb454_z3v37m53jqj5280000gn/T//ccGASkP2.s:136    .text.SVC_Handler:00000000 $t
/var/folders/25/vg8ydb454_z3v37m53jqj5280000gn/T//ccGASkP2.s:142    .text.SVC_Handler:00000000 SVC_Handler
/var/folders/25/vg8ydb454_z3v37m53jqj5280000gn/T//ccGASkP2.s:155    .text.DebugMon_Handler:00000000 $t
/var/folders/25/vg8ydb454_z3v37m53jqj5280000gn/T//ccGASkP2.s:161    .text.DebugMon_Handler:00000000 DebugMon_Handler
/var/folders/25/vg8ydb454_z3v37m53jqj5280000gn/T//ccGASkP2.s:174    .text.PendSV_Handler:00000000 $t
/var/folders/25/vg8ydb454_z3v37m53jqj5280000gn/T//ccGASkP2.s:180    .text.PendSV_Handler:00000000 PendSV_Handler
/var/folders/25/vg8ydb454_z3v37m53jqj5280000gn/T//ccGASkP2.s:193    .text.SysTick_Handler:00000000 $t
/var/folders/25/vg8ydb454_z3v37m53jqj5280000gn/T//ccGASkP2.s:199    .text.SysTick_Handler:00000000 SysTick_Handler
/var/folders/25/vg8ydb454_z3v37m53jqj5280000gn/T//ccGASkP2.s:219    .rodata.DMA2_Stream5_IRQHandler.str1.4:00000000 $d
/var/folders/25/vg8ydb454_z3v37m53jqj5280000gn/T//ccGASkP2.s:223    .text.DMA2_Stream5_IRQHandler:00000000 $t
/var/folders/25/vg8ydb454_z3v37m53jqj5280000gn/T//ccGASkP2.s:229    .text.DMA2_Stream5_IRQHandler:00000000 DMA2_Stream5_IRQHandler
/var/folders/25/vg8ydb454_z3v37m53jqj5280000gn/T//ccGASkP2.s:253    .text.DMA2_Stream5_IRQHandler:00000010 $d
/var/folders/25/vg8ydb454_z3v37m53jqj5280000gn/T//ccGASkP2.s:259    .text.EXTI15_10_IRQHandler:00000000 $t
/var/folders/25/vg8ydb454_z3v37m53jqj5280000gn/T//ccGASkP2.s:265    .text.EXTI15_10_IRQHandler:00000000 EXTI15_10_IRQHandler
/var/folders/25/vg8ydb454_z3v37m53jqj5280000gn/T//ccGASkP2.s:286    .text.USART1_IRQHandler:00000000 $t
/var/folders/25/vg8ydb454_z3v37m53jqj5280000gn/T//ccGASkP2.s:292    .text.USART1_IRQHandler:00000000 USART1_IRQHandler
/var/folders/25/vg8ydb454_z3v37m53jqj5280000gn/T//ccGASkP2.s:312    .text.USART1_IRQHandler:0000000c $d
/var/folders/25/vg8ydb454_z3v37m53jqj5280000gn/T//ccGASkP2.s:317    .text.USART2_IRQHandler:00000000 $t
/var/folders/25/vg8ydb454_z3v37m53jqj5280000gn/T//ccGASkP2.s:323    .text.USART2_IRQHandler:00000000 USART2_IRQHandler
/var/folders/25/vg8ydb454_z3v37m53jqj5280000gn/T//ccGASkP2.s:343    .text.USART2_IRQHandler:0000000c $d

UNDEFINED SYMBOLS
HAL_IncTick
WriteUART_Blocking
HAL_DMA_IRQHandler
hdma_usart1_rx
HAL_GPIO_EXTI_IRQHandler
HAL_UART_IRQHandler
huart1
huart2
