ARM GAS  /var/folders/25/vg8ydb454_z3v37m53jqj5280000gn/T//ccf2rIRG.s 			page 1


   1              		.cpu cortex-m4
   2              		.arch armv7e-m
   3              		.fpu fpv4-sp-d16
   4              		.eabi_attribute 27, 1
   5              		.eabi_attribute 28, 1
   6              		.eabi_attribute 20, 1
   7              		.eabi_attribute 21, 1
   8              		.eabi_attribute 23, 3
   9              		.eabi_attribute 24, 1
  10              		.eabi_attribute 25, 1
  11              		.eabi_attribute 26, 1
  12              		.eabi_attribute 30, 1
  13              		.eabi_attribute 34, 1
  14              		.eabi_attribute 18, 4
  15              		.file	"uart_handler.c"
  16              		.text
  17              	.Ltext0:
  18              		.cfi_sections	.debug_frame
  19              		.file 1 "Core/Src/uart_handler/uart_handler.c"
  20              		.section	.text.MX_USART1_UART_Init,"ax",%progbits
  21              		.align	1
  22              		.global	MX_USART1_UART_Init
  23              		.syntax unified
  24              		.thumb
  25              		.thumb_func
  27              	MX_USART1_UART_Init:
  28              	.LFB137:
   1:Core/Src/uart_handler/uart_handler.c **** /* Includes ------------------------------------------------------------------*/
   2:Core/Src/uart_handler/uart_handler.c **** #include "uart_handler.h"
   3:Core/Src/uart_handler/uart_handler.c **** #include <string.h>
   4:Core/Src/uart_handler/uart_handler.c **** #include <stdio.h>
   5:Core/Src/uart_handler/uart_handler.c **** 
   6:Core/Src/uart_handler/uart_handler.c **** /* Private variables ---------------------------------------------------------*/
   7:Core/Src/uart_handler/uart_handler.c **** UART_HandleTypeDef huart1;
   8:Core/Src/uart_handler/uart_handler.c **** UART_HandleTypeDef huart2;
   9:Core/Src/uart_handler/uart_handler.c **** DMA_HandleTypeDef hdma_usart1_rx; // Definition for the USART1 RX DMA handle
  10:Core/Src/uart_handler/uart_handler.c **** 
  11:Core/Src/uart_handler/uart_handler.c **** /* Function Definitions ------------------------------------------------------*/
  12:Core/Src/uart_handler/uart_handler.c **** 
  13:Core/Src/uart_handler/uart_handler.c **** void MX_USART1_UART_Init(void)
  14:Core/Src/uart_handler/uart_handler.c **** {
  29              		.loc 1 14 1 view -0
  30              		.cfi_startproc
  31              		@ args = 0, pretend = 0, frame = 0
  32              		@ frame_needed = 0, uses_anonymous_args = 0
  33 0000 08B5     		push	{r3, lr}
  34              	.LCFI0:
  35              		.cfi_def_cfa_offset 8
  36              		.cfi_offset 3, -8
  37              		.cfi_offset 14, -4
  15:Core/Src/uart_handler/uart_handler.c ****   huart1.Instance = USART1;
  38              		.loc 1 15 3 view .LVU1
  39              		.loc 1 15 19 is_stmt 0 view .LVU2
  40 0002 0A48     		ldr	r0, .L5
  41 0004 0A4B     		ldr	r3, .L5+4
  42 0006 0360     		str	r3, [r0]
  16:Core/Src/uart_handler/uart_handler.c ****   huart1.Init.BaudRate = 9600;
ARM GAS  /var/folders/25/vg8ydb454_z3v37m53jqj5280000gn/T//ccf2rIRG.s 			page 2


  43              		.loc 1 16 3 is_stmt 1 view .LVU3
  44              		.loc 1 16 24 is_stmt 0 view .LVU4
  45 0008 4FF41653 		mov	r3, #9600
  46 000c 4360     		str	r3, [r0, #4]
  17:Core/Src/uart_handler/uart_handler.c ****   huart1.Init.WordLength = UART_WORDLENGTH_8B;
  47              		.loc 1 17 3 is_stmt 1 view .LVU5
  48              		.loc 1 17 26 is_stmt 0 view .LVU6
  49 000e 0023     		movs	r3, #0
  50 0010 8360     		str	r3, [r0, #8]
  18:Core/Src/uart_handler/uart_handler.c ****   huart1.Init.StopBits = UART_STOPBITS_1;
  51              		.loc 1 18 3 is_stmt 1 view .LVU7
  52              		.loc 1 18 24 is_stmt 0 view .LVU8
  53 0012 C360     		str	r3, [r0, #12]
  19:Core/Src/uart_handler/uart_handler.c ****   huart1.Init.Parity = UART_PARITY_NONE;
  54              		.loc 1 19 3 is_stmt 1 view .LVU9
  55              		.loc 1 19 22 is_stmt 0 view .LVU10
  56 0014 0361     		str	r3, [r0, #16]
  20:Core/Src/uart_handler/uart_handler.c ****   huart1.Init.Mode = UART_MODE_TX_RX;
  57              		.loc 1 20 3 is_stmt 1 view .LVU11
  58              		.loc 1 20 20 is_stmt 0 view .LVU12
  59 0016 0C22     		movs	r2, #12
  60 0018 4261     		str	r2, [r0, #20]
  21:Core/Src/uart_handler/uart_handler.c ****   huart1.Init.HwFlowCtl = UART_HWCONTROL_NONE;
  61              		.loc 1 21 3 is_stmt 1 view .LVU13
  62              		.loc 1 21 25 is_stmt 0 view .LVU14
  63 001a 8361     		str	r3, [r0, #24]
  22:Core/Src/uart_handler/uart_handler.c ****   huart1.Init.OverSampling = UART_OVERSAMPLING_16;
  64              		.loc 1 22 3 is_stmt 1 view .LVU15
  65              		.loc 1 22 28 is_stmt 0 view .LVU16
  66 001c C361     		str	r3, [r0, #28]
  23:Core/Src/uart_handler/uart_handler.c ****   if (HAL_UART_Init(&huart1) != HAL_OK)
  67              		.loc 1 23 3 is_stmt 1 view .LVU17
  68              		.loc 1 23 7 is_stmt 0 view .LVU18
  69 001e FFF7FEFF 		bl	HAL_UART_Init
  70              	.LVL0:
  71              		.loc 1 23 6 discriminator 1 view .LVU19
  72 0022 00B9     		cbnz	r0, .L4
  73              	.L1:
  24:Core/Src/uart_handler/uart_handler.c ****   {
  25:Core/Src/uart_handler/uart_handler.c ****     Error_Handler();
  26:Core/Src/uart_handler/uart_handler.c ****   }
  27:Core/Src/uart_handler/uart_handler.c **** }
  74              		.loc 1 27 1 view .LVU20
  75 0024 08BD     		pop	{r3, pc}
  76              	.L4:
  25:Core/Src/uart_handler/uart_handler.c ****   }
  77              		.loc 1 25 5 is_stmt 1 view .LVU21
  78 0026 FFF7FEFF 		bl	Error_Handler
  79              	.LVL1:
  80              		.loc 1 27 1 is_stmt 0 view .LVU22
  81 002a FBE7     		b	.L1
  82              	.L6:
  83              		.align	2
  84              	.L5:
  85 002c 00000000 		.word	huart1
  86 0030 00100140 		.word	1073811456
  87              		.cfi_endproc
ARM GAS  /var/folders/25/vg8ydb454_z3v37m53jqj5280000gn/T//ccf2rIRG.s 			page 3


  88              	.LFE137:
  90              		.section	.text.MX_USART2_UART_Init,"ax",%progbits
  91              		.align	1
  92              		.global	MX_USART2_UART_Init
  93              		.syntax unified
  94              		.thumb
  95              		.thumb_func
  97              	MX_USART2_UART_Init:
  98              	.LFB138:
  28:Core/Src/uart_handler/uart_handler.c **** 
  29:Core/Src/uart_handler/uart_handler.c **** void MX_USART2_UART_Init(void)
  30:Core/Src/uart_handler/uart_handler.c **** {
  99              		.loc 1 30 1 is_stmt 1 view -0
 100              		.cfi_startproc
 101              		@ args = 0, pretend = 0, frame = 0
 102              		@ frame_needed = 0, uses_anonymous_args = 0
 103 0000 08B5     		push	{r3, lr}
 104              	.LCFI1:
 105              		.cfi_def_cfa_offset 8
 106              		.cfi_offset 3, -8
 107              		.cfi_offset 14, -4
  31:Core/Src/uart_handler/uart_handler.c ****   huart2.Instance = USART2;
 108              		.loc 1 31 3 view .LVU24
 109              		.loc 1 31 19 is_stmt 0 view .LVU25
 110 0002 0A48     		ldr	r0, .L11
 111 0004 0A4B     		ldr	r3, .L11+4
 112 0006 0360     		str	r3, [r0]
  32:Core/Src/uart_handler/uart_handler.c ****   huart2.Init.BaudRate = 115200;
 113              		.loc 1 32 3 is_stmt 1 view .LVU26
 114              		.loc 1 32 24 is_stmt 0 view .LVU27
 115 0008 4FF4E133 		mov	r3, #115200
 116 000c 4360     		str	r3, [r0, #4]
  33:Core/Src/uart_handler/uart_handler.c ****   huart2.Init.WordLength = UART_WORDLENGTH_8B;
 117              		.loc 1 33 3 is_stmt 1 view .LVU28
 118              		.loc 1 33 26 is_stmt 0 view .LVU29
 119 000e 0023     		movs	r3, #0
 120 0010 8360     		str	r3, [r0, #8]
  34:Core/Src/uart_handler/uart_handler.c ****   huart2.Init.StopBits = UART_STOPBITS_1;
 121              		.loc 1 34 3 is_stmt 1 view .LVU30
 122              		.loc 1 34 24 is_stmt 0 view .LVU31
 123 0012 C360     		str	r3, [r0, #12]
  35:Core/Src/uart_handler/uart_handler.c ****   huart2.Init.Parity = UART_PARITY_NONE;
 124              		.loc 1 35 3 is_stmt 1 view .LVU32
 125              		.loc 1 35 22 is_stmt 0 view .LVU33
 126 0014 0361     		str	r3, [r0, #16]
  36:Core/Src/uart_handler/uart_handler.c ****   huart2.Init.Mode = UART_MODE_TX_RX;
 127              		.loc 1 36 3 is_stmt 1 view .LVU34
 128              		.loc 1 36 20 is_stmt 0 view .LVU35
 129 0016 0C22     		movs	r2, #12
 130 0018 4261     		str	r2, [r0, #20]
  37:Core/Src/uart_handler/uart_handler.c ****   huart2.Init.HwFlowCtl = UART_HWCONTROL_NONE;
 131              		.loc 1 37 3 is_stmt 1 view .LVU36
 132              		.loc 1 37 25 is_stmt 0 view .LVU37
 133 001a 8361     		str	r3, [r0, #24]
  38:Core/Src/uart_handler/uart_handler.c ****   huart2.Init.OverSampling = UART_OVERSAMPLING_16;
 134              		.loc 1 38 3 is_stmt 1 view .LVU38
 135              		.loc 1 38 28 is_stmt 0 view .LVU39
ARM GAS  /var/folders/25/vg8ydb454_z3v37m53jqj5280000gn/T//ccf2rIRG.s 			page 4


 136 001c C361     		str	r3, [r0, #28]
  39:Core/Src/uart_handler/uart_handler.c ****   if (HAL_UART_Init(&huart2) != HAL_OK)
 137              		.loc 1 39 3 is_stmt 1 view .LVU40
 138              		.loc 1 39 7 is_stmt 0 view .LVU41
 139 001e FFF7FEFF 		bl	HAL_UART_Init
 140              	.LVL2:
 141              		.loc 1 39 6 discriminator 1 view .LVU42
 142 0022 00B9     		cbnz	r0, .L10
 143              	.L7:
  40:Core/Src/uart_handler/uart_handler.c ****   {
  41:Core/Src/uart_handler/uart_handler.c ****     Error_Handler();
  42:Core/Src/uart_handler/uart_handler.c ****   }
  43:Core/Src/uart_handler/uart_handler.c **** }
 144              		.loc 1 43 1 view .LVU43
 145 0024 08BD     		pop	{r3, pc}
 146              	.L10:
  41:Core/Src/uart_handler/uart_handler.c ****   }
 147              		.loc 1 41 5 is_stmt 1 view .LVU44
 148 0026 FFF7FEFF 		bl	Error_Handler
 149              	.LVL3:
 150              		.loc 1 43 1 is_stmt 0 view .LVU45
 151 002a FBE7     		b	.L7
 152              	.L12:
 153              		.align	2
 154              	.L11:
 155 002c 00000000 		.word	huart2
 156 0030 00440040 		.word	1073759232
 157              		.cfi_endproc
 158              	.LFE138:
 160              		.section	.text.WriteUART_Blocking,"ax",%progbits
 161              		.align	1
 162              		.global	WriteUART_Blocking
 163              		.syntax unified
 164              		.thumb
 165              		.thumb_func
 167              	WriteUART_Blocking:
 168              	.LVL4:
 169              	.LFB139:
  44:Core/Src/uart_handler/uart_handler.c **** 
  45:Core/Src/uart_handler/uart_handler.c **** // ... (WriteUART_Blocking, WriteUART, and HAL_UART_TxCpltCallback remain the same)
  46:Core/Src/uart_handler/uart_handler.c **** void WriteUART_Blocking(const char *message)
  47:Core/Src/uart_handler/uart_handler.c **** {
 170              		.loc 1 47 1 is_stmt 1 view -0
 171              		.cfi_startproc
 172              		@ args = 0, pretend = 0, frame = 0
 173              		@ frame_needed = 0, uses_anonymous_args = 0
  48:Core/Src/uart_handler/uart_handler.c ****     if (message == NULL) return;
 174              		.loc 1 48 5 view .LVU47
 175              		.loc 1 48 8 is_stmt 0 view .LVU48
 176 0000 68B1     		cbz	r0, .L16
  47:Core/Src/uart_handler/uart_handler.c ****     if (message == NULL) return;
 177              		.loc 1 47 1 view .LVU49
 178 0002 10B5     		push	{r4, lr}
 179              	.LCFI2:
 180              		.cfi_def_cfa_offset 8
 181              		.cfi_offset 4, -8
 182              		.cfi_offset 14, -4
ARM GAS  /var/folders/25/vg8ydb454_z3v37m53jqj5280000gn/T//ccf2rIRG.s 			page 5


 183 0004 0446     		mov	r4, r0
  49:Core/Src/uart_handler/uart_handler.c ****     uint16_t len = strlen(message);
 184              		.loc 1 49 5 is_stmt 1 view .LVU50
 185              		.loc 1 49 20 is_stmt 0 view .LVU51
 186 0006 FFF7FEFF 		bl	strlen
 187              	.LVL5:
 188              		.loc 1 49 14 discriminator 1 view .LVU52
 189 000a 82B2     		uxth	r2, r0
 190              	.LVL6:
  50:Core/Src/uart_handler/uart_handler.c ****     if (len == 0) return;
 191              		.loc 1 50 5 is_stmt 1 view .LVU53
 192              		.loc 1 50 8 is_stmt 0 view .LVU54
 193 000c 02B9     		cbnz	r2, .L19
 194              	.LVL7:
 195              	.L13:
  51:Core/Src/uart_handler/uart_handler.c ****     HAL_UART_Transmit(&huart2, (uint8_t *)message, len, HAL_MAX_DELAY);
  52:Core/Src/uart_handler/uart_handler.c **** }
 196              		.loc 1 52 1 view .LVU55
 197 000e 10BD     		pop	{r4, pc}
 198              	.LVL8:
 199              	.L19:
  51:Core/Src/uart_handler/uart_handler.c ****     HAL_UART_Transmit(&huart2, (uint8_t *)message, len, HAL_MAX_DELAY);
 200              		.loc 1 51 5 is_stmt 1 view .LVU56
 201 0010 4FF0FF33 		mov	r3, #-1
 202 0014 2146     		mov	r1, r4
 203 0016 0248     		ldr	r0, .L20
 204 0018 FFF7FEFF 		bl	HAL_UART_Transmit
 205              	.LVL9:
  51:Core/Src/uart_handler/uart_handler.c ****     HAL_UART_Transmit(&huart2, (uint8_t *)message, len, HAL_MAX_DELAY);
 206              		.loc 1 51 5 is_stmt 0 view .LVU57
 207 001c F7E7     		b	.L13
 208              	.LVL10:
 209              	.L16:
 210              	.LCFI3:
 211              		.cfi_def_cfa_offset 0
 212              		.cfi_restore 4
 213              		.cfi_restore 14
  51:Core/Src/uart_handler/uart_handler.c ****     HAL_UART_Transmit(&huart2, (uint8_t *)message, len, HAL_MAX_DELAY);
 214              		.loc 1 51 5 view .LVU58
 215 001e 7047     		bx	lr
 216              	.L21:
 217              		.align	2
 218              	.L20:
 219 0020 00000000 		.word	huart2
 220              		.cfi_endproc
 221              	.LFE139:
 223              		.section	.text.WriteUART,"ax",%progbits
 224              		.align	1
 225              		.global	WriteUART
 226              		.syntax unified
 227              		.thumb
 228              		.thumb_func
 230              	WriteUART:
 231              	.LVL11:
 232              	.LFB140:
  53:Core/Src/uart_handler/uart_handler.c **** 
  54:Core/Src/uart_handler/uart_handler.c **** HAL_StatusTypeDef WriteUART(const char *message) {
ARM GAS  /var/folders/25/vg8ydb454_z3v37m53jqj5280000gn/T//ccf2rIRG.s 			page 6


 233              		.loc 1 54 50 is_stmt 1 view -0
 234              		.cfi_startproc
 235              		@ args = 0, pretend = 0, frame = 0
 236              		@ frame_needed = 0, uses_anonymous_args = 0
  55:Core/Src/uart_handler/uart_handler.c ****     if (message == NULL) return HAL_ERROR;
 237              		.loc 1 55 5 view .LVU60
 238              		.loc 1 55 8 is_stmt 0 view .LVU61
 239 0000 C8B1     		cbz	r0, .L26
  54:Core/Src/uart_handler/uart_handler.c ****     if (message == NULL) return HAL_ERROR;
 240              		.loc 1 54 50 view .LVU62
 241 0002 38B5     		push	{r3, r4, r5, lr}
 242              	.LCFI4:
 243              		.cfi_def_cfa_offset 16
 244              		.cfi_offset 3, -16
 245              		.cfi_offset 4, -12
 246              		.cfi_offset 5, -8
 247              		.cfi_offset 14, -4
 248 0004 0546     		mov	r5, r0
  56:Core/Src/uart_handler/uart_handler.c ****     uint16_t message_len = strlen(message);
 249              		.loc 1 56 5 is_stmt 1 view .LVU63
 250              		.loc 1 56 28 is_stmt 0 view .LVU64
 251 0006 FFF7FEFF 		bl	strlen
 252              	.LVL12:
 253              		.loc 1 56 14 discriminator 1 view .LVU65
 254 000a 84B2     		uxth	r4, r0
 255              	.LVL13:
  57:Core/Src/uart_handler/uart_handler.c ****     if (message_len == 0) return HAL_OK;
 256              		.loc 1 57 5 is_stmt 1 view .LVU66
 257              		.loc 1 57 8 is_stmt 0 view .LVU67
 258 000c 0CB9     		cbnz	r4, .L32
 259              		.loc 1 57 34 discriminator 1 view .LVU68
 260 000e 0020     		movs	r0, #0
 261              	.L23:
  58:Core/Src/uart_handler/uart_handler.c ****     if (HAL_UART_GetState(&huart2) == HAL_UART_STATE_BUSY_TX || HAL_UART_GetState(&huart2) == HAL_U
  59:Core/Src/uart_handler/uart_handler.c ****         return HAL_BUSY;
  60:Core/Src/uart_handler/uart_handler.c ****     }
  61:Core/Src/uart_handler/uart_handler.c ****     return HAL_UART_Transmit_IT(&huart2, (uint8_t *)message, message_len);
  62:Core/Src/uart_handler/uart_handler.c **** }
 262              		.loc 1 62 1 view .LVU69
 263 0010 38BD     		pop	{r3, r4, r5, pc}
 264              	.LVL14:
 265              	.L32:
  58:Core/Src/uart_handler/uart_handler.c ****     if (HAL_UART_GetState(&huart2) == HAL_UART_STATE_BUSY_TX || HAL_UART_GetState(&huart2) == HAL_U
 266              		.loc 1 58 5 is_stmt 1 view .LVU70
  58:Core/Src/uart_handler/uart_handler.c ****     if (HAL_UART_GetState(&huart2) == HAL_UART_STATE_BUSY_TX || HAL_UART_GetState(&huart2) == HAL_U
 267              		.loc 1 58 9 is_stmt 0 view .LVU71
 268 0012 0A48     		ldr	r0, .L33
 269 0014 FFF7FEFF 		bl	HAL_UART_GetState
 270              	.LVL15:
  58:Core/Src/uart_handler/uart_handler.c ****     if (HAL_UART_GetState(&huart2) == HAL_UART_STATE_BUSY_TX || HAL_UART_GetState(&huart2) == HAL_U
 271              		.loc 1 58 8 discriminator 1 view .LVU72
 272 0018 2128     		cmp	r0, #33
 273 001a 0AD0     		beq	.L24
  58:Core/Src/uart_handler/uart_handler.c ****     if (HAL_UART_GetState(&huart2) == HAL_UART_STATE_BUSY_TX || HAL_UART_GetState(&huart2) == HAL_U
 274              		.loc 1 58 65 discriminator 1 view .LVU73
 275 001c 0748     		ldr	r0, .L33
 276 001e FFF7FEFF 		bl	HAL_UART_GetState
ARM GAS  /var/folders/25/vg8ydb454_z3v37m53jqj5280000gn/T//ccf2rIRG.s 			page 7


 277              	.LVL16:
  58:Core/Src/uart_handler/uart_handler.c ****     if (HAL_UART_GetState(&huart2) == HAL_UART_STATE_BUSY_TX || HAL_UART_GetState(&huart2) == HAL_U
 278              		.loc 1 58 62 discriminator 1 view .LVU74
 279 0022 2328     		cmp	r0, #35
 280 0024 05D0     		beq	.L24
  61:Core/Src/uart_handler/uart_handler.c **** }
 281              		.loc 1 61 5 is_stmt 1 view .LVU75
  61:Core/Src/uart_handler/uart_handler.c **** }
 282              		.loc 1 61 12 is_stmt 0 view .LVU76
 283 0026 2246     		mov	r2, r4
 284 0028 2946     		mov	r1, r5
 285 002a 0448     		ldr	r0, .L33
 286 002c FFF7FEFF 		bl	HAL_UART_Transmit_IT
 287              	.LVL17:
 288 0030 EEE7     		b	.L23
 289              	.L24:
  59:Core/Src/uart_handler/uart_handler.c ****     }
 290              		.loc 1 59 9 is_stmt 1 view .LVU77
  59:Core/Src/uart_handler/uart_handler.c ****     }
 291              		.loc 1 59 16 is_stmt 0 view .LVU78
 292 0032 0220     		movs	r0, #2
 293 0034 ECE7     		b	.L23
 294              	.LVL18:
 295              	.L26:
 296              	.LCFI5:
 297              		.cfi_def_cfa_offset 0
 298              		.cfi_restore 3
 299              		.cfi_restore 4
 300              		.cfi_restore 5
 301              		.cfi_restore 14
  55:Core/Src/uart_handler/uart_handler.c ****     uint16_t message_len = strlen(message);
 302              		.loc 1 55 33 discriminator 1 view .LVU79
 303 0036 0120     		movs	r0, #1
 304              	.LVL19:
 305              		.loc 1 62 1 view .LVU80
 306 0038 7047     		bx	lr
 307              	.L34:
 308 003a 00BF     		.align	2
 309              	.L33:
 310 003c 00000000 		.word	huart2
 311              		.cfi_endproc
 312              	.LFE140:
 314              		.section	.text.HAL_UART_TxCpltCallback,"ax",%progbits
 315              		.align	1
 316              		.global	HAL_UART_TxCpltCallback
 317              		.syntax unified
 318              		.thumb
 319              		.thumb_func
 321              	HAL_UART_TxCpltCallback:
 322              	.LVL20:
 323              	.LFB141:
  63:Core/Src/uart_handler/uart_handler.c **** 
  64:Core/Src/uart_handler/uart_handler.c **** void HAL_UART_TxCpltCallback(UART_HandleTypeDef *huart) {
 324              		.loc 1 64 57 is_stmt 1 view -0
 325              		.cfi_startproc
 326              		@ args = 0, pretend = 0, frame = 0
 327              		@ frame_needed = 0, uses_anonymous_args = 0
ARM GAS  /var/folders/25/vg8ydb454_z3v37m53jqj5280000gn/T//ccf2rIRG.s 			page 8


 328              		@ link register save eliminated.
  65:Core/Src/uart_handler/uart_handler.c ****     if (huart->Instance == USART2) {
 329              		.loc 1 65 5 view .LVU82
  66:Core/Src/uart_handler/uart_handler.c ****         // Handle transmit complete for PC logging if needed
  67:Core/Src/uart_handler/uart_handler.c ****     }
 330              		.loc 1 67 5 view .LVU83
  68:Core/Src/uart_handler/uart_handler.c **** }
 331              		.loc 1 68 1 is_stmt 0 view .LVU84
 332 0000 7047     		bx	lr
 333              		.cfi_endproc
 334              	.LFE141:
 336              		.global	hdma_usart1_rx
 337              		.section	.bss.hdma_usart1_rx,"aw",%nobits
 338              		.align	2
 341              	hdma_usart1_rx:
 342 0000 00000000 		.space	96
 342      00000000 
 342      00000000 
 342      00000000 
 342      00000000 
 343              		.global	huart2
 344              		.section	.bss.huart2,"aw",%nobits
 345              		.align	2
 348              	huart2:
 349 0000 00000000 		.space	72
 349      00000000 
 349      00000000 
 349      00000000 
 349      00000000 
 350              		.global	huart1
 351              		.section	.bss.huart1,"aw",%nobits
 352              		.align	2
 355              	huart1:
 356 0000 00000000 		.space	72
 356      00000000 
 356      00000000 
 356      00000000 
 356      00000000 
 357              		.text
 358              	.Letext0:
 359              		.file 2 "/Applications/ArmGNUToolchain/13.3.rel1/arm-none-eabi/arm-none-eabi/include/machine/_defa
 360              		.file 3 "/Applications/ArmGNUToolchain/13.3.rel1/arm-none-eabi/arm-none-eabi/include/sys/_stdint.h
 361              		.file 4 "Drivers/CMSIS/Device/ST/STM32F4xx/Include/stm32f411xe.h"
 362              		.file 5 "/Applications/ArmGNUToolchain/13.3.rel1/arm-none-eabi/lib/gcc/arm-none-eabi/13.3.1/includ
 363              		.file 6 "Drivers/STM32F4xx_HAL_Driver/Inc/stm32f4xx_hal_def.h"
 364              		.file 7 "Drivers/STM32F4xx_HAL_Driver/Inc/stm32f4xx_hal_dma.h"
 365              		.file 8 "Drivers/STM32F4xx_HAL_Driver/Inc/stm32f4xx_hal_uart.h"
 366              		.file 9 "Core/Src/uart_handler/uart_handler.h"
 367              		.file 10 "/Applications/ArmGNUToolchain/13.3.rel1/arm-none-eabi/arm-none-eabi/include/string.h"
 368              		.file 11 "Core/Src/library/aml_hal.h"
ARM GAS  /var/folders/25/vg8ydb454_z3v37m53jqj5280000gn/T//ccf2rIRG.s 			page 9

